; generated by Component: ARM Compiler 5.05 update 2 (build 169) Tool: ArmCC [4d0f38]
; commandline ArmCC [--list --debug -c --asm --interleave -o..\out\images_copy_rom_to_ram.o --asm_dir=..\out\ --list_dir=..\out\ --depend=..\out\images_copy_rom_to_ram.d --cpu=Cortex-R4 --apcs=interwork -O0 --diag_suppress=9931 -I..\..\inc -I..\..\usecases\inc -I..\..\..\..\common\inc -I..\..\..\..\cortex_r4_keil\inc -I..\..\..\..\freetype\inc -I..\..\..\..\hldd\inc -I..\..\..\..\lldd\inc -I..\..\..\..\lldd\hdr -I..\..\..\..\mw\inc -I..\..\usecases\images\inc -I..\..\..\..\cortex_r4\inc -I..\..\src -IC:\Keil_v5\ARM\RV31\INC -IC:\Keil_v5\ARM\CMSIS\Include -D__UVISION_VERSION=516 -D__KEIL__ -DMEASURE_TX --omf_browse=..\out\images_copy_rom_to_ram.crf ..\..\usecases\images\src\images_copy_rom_to_ram.c]
                          ARM

                          AREA ||.text||, CODE, READONLY, ALIGN=2

                  vGfCopyImagesROMtoRAM PROC
;;;37     
;;;38     void vGfCopyImagesROMtoRAM(void)
000000  e52de004          PUSH     {lr}
;;;39     {
000004  e24dd014          SUB      sp,sp,#0x14
;;;40     	gf_image_st stImageLocal;
;;;41     	
;;;42     	stImageLocal = stImage_LedOnLeft;
000008  e3a02014          MOV      r2,#0x14
00000c  e59f1f9c          LDR      r1,|L1.4016|
000010  e1a0000d          MOV      r0,sp
000014  ebfffffe          BL       __aeabi_memcpy4
;;;43     	stImageLocal.u32Address = PHYSICAL(&u32_LedOnLeft[0]);
000018  e59f0f94          LDR      r0,|L1.4020|
00001c  e58d0000          STR      r0,[sp,#0]
;;;44     	vGfBuffBlitBitmapFull(&stImageLocal, &stImage_LedOnLeft, 0, 0);
000020  e3a03000          MOV      r3,#0
000024  e1a02003          MOV      r2,r3
000028  e59f1f80          LDR      r1,|L1.4016|
00002c  e1a0000d          MOV      r0,sp
000030  ebfffffe          BL       vGfBuffBlitBitmapFull
;;;45     	vGfListExecute();
000034  ebfffffe          BL       vGfListExecute
;;;46     	
;;;47     	stImageLocal = stImage_LedOnRight;
000038  e3a02014          MOV      r2,#0x14
00003c  e59f1f74          LDR      r1,|L1.4024|
000040  e1a0000d          MOV      r0,sp
000044  ebfffffe          BL       __aeabi_memcpy4
;;;48     	stImageLocal.u32Address = PHYSICAL(&u32_LedOnRight[0]);
000048  e59f0f6c          LDR      r0,|L1.4028|
00004c  e58d0000          STR      r0,[sp,#0]
;;;49     	vGfBuffBlitBitmapFull(&stImageLocal, &stImage_LedOnRight, 0, 0);
000050  e3a03000          MOV      r3,#0
000054  e1a02003          MOV      r2,r3
000058  e59f1f58          LDR      r1,|L1.4024|
00005c  e1a0000d          MOV      r0,sp
000060  ebfffffe          BL       vGfBuffBlitBitmapFull
;;;50     	vGfListExecute();
000064  ebfffffe          BL       vGfListExecute
;;;51     	
;;;52     	stImageLocal = stImage_needle_1;
000068  e3a02014          MOV      r2,#0x14
00006c  e59f1f4c          LDR      r1,|L1.4032|
000070  e1a0000d          MOV      r0,sp
000074  ebfffffe          BL       __aeabi_memcpy4
;;;53     	stImageLocal.u32Address = PHYSICAL(&u32_needle_1[0]);
000078  e59f0f44          LDR      r0,|L1.4036|
00007c  e58d0000          STR      r0,[sp,#0]
;;;54     	vGfBuffBlitBitmapFull(&stImageLocal, &stImage_needle_1, 0, 0);
000080  e3a03000          MOV      r3,#0
000084  e1a02003          MOV      r2,r3
000088  e59f1f30          LDR      r1,|L1.4032|
00008c  e1a0000d          MOV      r0,sp
000090  ebfffffe          BL       vGfBuffBlitBitmapFull
;;;55     	vGfListExecute();
000094  ebfffffe          BL       vGfListExecute
;;;56     
;;;57     	
;;;58     	stImageLocal = stImage_FirstLogo;
000098  e3a02014          MOV      r2,#0x14
00009c  e59f1f24          LDR      r1,|L1.4040|
0000a0  e1a0000d          MOV      r0,sp
0000a4  ebfffffe          BL       __aeabi_memcpy4
;;;59     	stImageLocal.u32Address = PHYSICAL(&u32_FirstLogo[0]);
0000a8  e59f0f1c          LDR      r0,|L1.4044|
0000ac  e58d0000          STR      r0,[sp,#0]
;;;60     	vGfBuffBlitBitmapFull(&stImageLocal, &stImage_FirstLogo, 0, 0);
0000b0  e3a03000          MOV      r3,#0
0000b4  e1a02003          MOV      r2,r3
0000b8  e59f1f08          LDR      r1,|L1.4040|
0000bc  e1a0000d          MOV      r0,sp
0000c0  ebfffffe          BL       vGfBuffBlitBitmapFull
;;;61     	vGfListExecute();
0000c4  ebfffffe          BL       vGfListExecute
;;;62     	
;;;63     //	stImageLocal = stImage_MainShow;
;;;64     //	stImageLocal.u32Address = PHYSICAL(&u32_MainShow[0]);
;;;65     //	vGfBuffBlitBitmapFull(&stImageLocal, &stImage_MainShow, 0, 0);
;;;66     //	vGfListExecute();
;;;67         asm_copyfunction((uint32_t)&u32_MainShow[0], (uint32_t)&u32_MainShow[MAINSHOW_SIZE - 1], (uint32_t)&u32_MainShow_RAM[0]);
0000c8  e59f2f00          LDR      r2,|L1.4048|
0000cc  e59f1f00          LDR      r1,|L1.4052|
0000d0  e59f0f00          LDR      r0,|L1.4056|
0000d4  ebfffffe          BL       asm_copy_word
;;;68     
;;;69     	asm_copyfunction((uint32_t)&u32_digifont_0_RLE[0], (uint32_t)&u32_digifont_0_RLE[DIGIFONT_0_SIZE-1], (uint32_t)&u32_digifont_0_RLE_RAM[0]);
0000d8  e59f2efc          LDR      r2,|L1.4060|
0000dc  e59f1efc          LDR      r1,|L1.4064|
0000e0  e2410fa1          SUB      r0,r1,#0x284
0000e4  ebfffffe          BL       asm_copy_word
;;;70         asm_copyfunction((uint32_t)&u32_digifont_1_RLE[0], (uint32_t)&u32_digifont_1_RLE[DIGIFONT_1_SIZE-1], (uint32_t)&u32_digifont_1_RLE_RAM[0]);
0000e8  e59f2ef4          LDR      r2,|L1.4068|
0000ec  e59f1ef4          LDR      r1,|L1.4072|
0000f0  e2410f51          SUB      r0,r1,#0x144
0000f4  ebfffffe          BL       asm_copy_word
;;;71         asm_copyfunction((uint32_t)&u32_digifont_2_RLE[0], (uint32_t)&u32_digifont_2_RLE[DIGIFONT_2_SIZE-1], (uint32_t)&u32_digifont_2_RLE_RAM[0]);
0000f8  e59f2eec          LDR      r2,|L1.4076|
0000fc  e59f1eec          LDR      r1,|L1.4080|
000100  e2410f76          SUB      r0,r1,#0x1d8
000104  ebfffffe          BL       asm_copy_word
;;;72         asm_copyfunction((uint32_t)&u32_digifont_3_RLE[0], (uint32_t)&u32_digifont_3_RLE[DIGIFONT_3_SIZE-1], (uint32_t)&u32_digifont_3_RLE_RAM[0]);
000108  e59f2ee4          LDR      r2,|L1.4084|
00010c  e59f1ee4          LDR      r1,|L1.4088|
000110  e2410e1e          SUB      r0,r1,#0x1e0
000114  ebfffffe          BL       asm_copy_word
;;;73         asm_copyfunction((uint32_t)&u32_digifont_4_RLE[0], (uint32_t)&u32_digifont_4_RLE[DIGIFONT_4_SIZE-1], (uint32_t)&u32_digifont_4_RLE_RAM[0]);
000118  e59f2edc          LDR      r2,|L1.4092|
00011c  e59f1edc          LDR      r1,|L1.4096|
000120  e2410f81          SUB      r0,r1,#0x204
000124  ebfffffe          BL       asm_copy_word
;;;74         asm_copyfunction((uint32_t)&u32_digifont_5_RLE[0], (uint32_t)&u32_digifont_5_RLE[DIGIFONT_5_SIZE-1], (uint32_t)&u32_digifont_5_RLE_RAM[0]);
000128  e59f2ed4          LDR      r2,|L1.4100|
00012c  e59f1ed4          LDR      r1,|L1.4104|
000130  e2410e1e          SUB      r0,r1,#0x1e0
000134  ebfffffe          BL       asm_copy_word
;;;75         asm_copyfunction((uint32_t)&u32_digifont_6_RLE[0], (uint32_t)&u32_digifont_6_RLE[DIGIFONT_6_SIZE-1], (uint32_t)&u32_digifont_6_RLE_RAM[0]);
000138  e59f2ecc          LDR      r2,|L1.4108|
00013c  e59f1ecc          LDR      r1,|L1.4112|
000140  e2410f8f          SUB      r0,r1,#0x23c
000144  ebfffffe          BL       asm_copy_word
;;;76         asm_copyfunction((uint32_t)&u32_digifont_7_RLE[0], (uint32_t)&u32_digifont_7_RLE[DIGIFONT_7_SIZE-1], (uint32_t)&u32_digifont_7_RLE_RAM[0]);
000148  e59f2ec4          LDR      r2,|L1.4116|
00014c  e59f1ec4          LDR      r1,|L1.4120|
000150  e2410f5e          SUB      r0,r1,#0x178
000154  ebfffffe          BL       asm_copy_word
;;;77         asm_copyfunction((uint32_t)&u32_digifont_8_RLE[0], (uint32_t)&u32_digifont_8_RLE[DIGIFONT_8_SIZE-1], (uint32_t)&u32_digifont_8_RLE_RAM[0]);
000158  e59f2ebc          LDR      r2,|L1.4124|
00015c  e59f1ebc          LDR      r1,|L1.4128|
000160  e2410fa6          SUB      r0,r1,#0x298
000164  ebfffffe          BL       asm_copy_word
;;;78         asm_copyfunction((uint32_t)&u32_digifont_9_RLE[0], (uint32_t)&u32_digifont_9_RLE[DIGIFONT_9_SIZE-1], (uint32_t)&u32_digifont_9_RLE_RAM[0]);
000168  e59f2eb4          LDR      r2,|L1.4132|
00016c  e59f1eb4          LDR      r1,|L1.4136|
000170  e2410d09          SUB      r0,r1,#0x240
000174  ebfffffe          BL       asm_copy_word
;;;79         asm_copyfunction((uint32_t)&u32_digifont_dp_RLE[0], (uint32_t)&u32_digifont_dp_RLE[DIGIFONT_DP_SIZE-1], (uint32_t)&u32_digifont_dp_RLE_RAM[0]);
000178  e59f2eac          LDR      r2,|L1.4140|
00017c  e59f1eac          LDR      r1,|L1.4144|
000180  e24100a4          SUB      r0,r1,#0xa4
000184  ebfffffe          BL       asm_copy_word
;;;80     
;;;81     
;;;82     	stImageLocal = stImage_AirBag_ON;
000188  e3a02014          MOV      r2,#0x14
00018c  e59f1ea0          LDR      r1,|L1.4148|
000190  e1a0000d          MOV      r0,sp
000194  ebfffffe          BL       __aeabi_memcpy4
;;;83     	stImageLocal.u32Address = PHYSICAL(&u32_AirBag_ON[0]);
000198  e59f0e98          LDR      r0,|L1.4152|
00019c  e58d0000          STR      r0,[sp,#0]
;;;84     	vGfBuffBlitBitmapFull(&stImageLocal, &stImage_AirBag_ON, 0, 0);
0001a0  e3a03000          MOV      r3,#0
0001a4  e1a02003          MOV      r2,r3
0001a8  e59f1e84          LDR      r1,|L1.4148|
0001ac  e1a0000d          MOV      r0,sp
0001b0  ebfffffe          BL       vGfBuffBlitBitmapFull
;;;85     	vGfListExecute();
0001b4  ebfffffe          BL       vGfListExecute
;;;86     	
;;;87     
;;;88     	
;;;89     	stImageLocal = stImage_ASB_ON;
0001b8  e3a02014          MOV      r2,#0x14
0001bc  e59f1e78          LDR      r1,|L1.4156|
0001c0  e1a0000d          MOV      r0,sp
0001c4  ebfffffe          BL       __aeabi_memcpy4
;;;90     	stImageLocal.u32Address = PHYSICAL(&u32_ASB_ON[0]);
0001c8  e59f0e70          LDR      r0,|L1.4160|
0001cc  e58d0000          STR      r0,[sp,#0]
;;;91     	vGfBuffBlitBitmapFull(&stImageLocal, &stImage_ASB_ON, 0, 0);
0001d0  e3a03000          MOV      r3,#0
0001d4  e1a02003          MOV      r2,r3
0001d8  e59f1e5c          LDR      r1,|L1.4156|
0001dc  e1a0000d          MOV      r0,sp
0001e0  ebfffffe          BL       vGfBuffBlitBitmapFull
;;;92     	vGfListExecute();
0001e4  ebfffffe          BL       vGfListExecute
;;;93     	
;;;94     	
;;;95     	
;;;96     	stImageLocal = stImage_A_FogLamp_ON;
0001e8  e3a02014          MOV      r2,#0x14
0001ec  e59f1e50          LDR      r1,|L1.4164|
0001f0  e1a0000d          MOV      r0,sp
0001f4  ebfffffe          BL       __aeabi_memcpy4
;;;97     	stImageLocal.u32Address = PHYSICAL(&u32_A_FogLamp_ON[0]);
0001f8  e59f0e48          LDR      r0,|L1.4168|
0001fc  e58d0000          STR      r0,[sp,#0]
;;;98     	vGfBuffBlitBitmapFull(&stImageLocal, &stImage_A_FogLamp_ON, 0, 0);
000200  e3a03000          MOV      r3,#0
000204  e1a02003          MOV      r2,r3
000208  e59f1e34          LDR      r1,|L1.4164|
00020c  e1a0000d          MOV      r0,sp
000210  ebfffffe          BL       vGfBuffBlitBitmapFull
;;;99     	vGfListExecute();
000214  ebfffffe          BL       vGfListExecute
;;;100    	
;;;101    	
;;;102    	
;;;103    	stImageLocal = stImage_BrakeFluid_ON;
000218  e3a02014          MOV      r2,#0x14
00021c  e59f1e28          LDR      r1,|L1.4172|
000220  e1a0000d          MOV      r0,sp
000224  ebfffffe          BL       __aeabi_memcpy4
;;;104    	stImageLocal.u32Address = PHYSICAL(&u32_BrakeFluid_ON[0]);
000228  e59f0e20          LDR      r0,|L1.4176|
00022c  e58d0000          STR      r0,[sp,#0]
;;;105    	vGfBuffBlitBitmapFull(&stImageLocal, &stImage_BrakeFluid_ON, 0, 0);
000230  e3a03000          MOV      r3,#0
000234  e1a02003          MOV      r2,r3
000238  e59f1e0c          LDR      r1,|L1.4172|
00023c  e1a0000d          MOV      r0,sp
000240  ebfffffe          BL       vGfBuffBlitBitmapFull
;;;106    	vGfListExecute();
000244  ebfffffe          BL       vGfListExecute
;;;107    	
;;;108    	
;;;109    	
;;;110    	stImageLocal = stImage_CarLock_ON;
000248  e3a02014          MOV      r2,#0x14
00024c  e59f1e00          LDR      r1,|L1.4180|
000250  e1a0000d          MOV      r0,sp
000254  ebfffffe          BL       __aeabi_memcpy4
;;;111    	stImageLocal.u32Address = PHYSICAL(&u32_CarLock_ON[0]);
000258  e59f0df8          LDR      r0,|L1.4184|
00025c  e58d0000          STR      r0,[sp,#0]
;;;112    	vGfBuffBlitBitmapFull(&stImageLocal, &stImage_CarLock_ON, 0, 0);
000260  e3a03000          MOV      r3,#0
000264  e1a02003          MOV      r2,r3
000268  e59f1de4          LDR      r1,|L1.4180|
00026c  e1a0000d          MOV      r0,sp
000270  ebfffffe          BL       vGfBuffBlitBitmapFull
;;;113    	vGfListExecute();
000274  ebfffffe          BL       vGfListExecute
;;;114    	
;;;115    	
;;;116    	
;;;117    	stImageLocal = stImage_Charge_ON;
000278  e3a02014          MOV      r2,#0x14
00027c  e59f1dd8          LDR      r1,|L1.4188|
000280  e1a0000d          MOV      r0,sp
000284  ebfffffe          BL       __aeabi_memcpy4
;;;118    	stImageLocal.u32Address = PHYSICAL(&u32_Charge_ON[0]);
000288  e59f0dd0          LDR      r0,|L1.4192|
00028c  e58d0000          STR      r0,[sp,#0]
;;;119    	vGfBuffBlitBitmapFull(&stImageLocal, &stImage_Charge_ON, 0, 0);
000290  e3a03000          MOV      r3,#0
000294  e1a02003          MOV      r2,r3
000298  e59f1dbc          LDR      r1,|L1.4188|
00029c  e1a0000d          MOV      r0,sp
0002a0  ebfffffe          BL       vGfBuffBlitBitmapFull
;;;120    	vGfListExecute();
0002a4  ebfffffe          BL       vGfListExecute
;;;121    	
;;;122    	
;;;123    	stImageLocal = stImage_ChargPlug_ON;
0002a8  e3a02014          MOV      r2,#0x14
0002ac  e59f1db0          LDR      r1,|L1.4196|
0002b0  e1a0000d          MOV      r0,sp
0002b4  ebfffffe          BL       __aeabi_memcpy4
;;;124    	stImageLocal.u32Address = PHYSICAL(&u32_ChargPlug_ON[0]);
0002b8  e59f0da8          LDR      r0,|L1.4200|
0002bc  e58d0000          STR      r0,[sp,#0]
;;;125    	vGfBuffBlitBitmapFull(&stImageLocal, &stImage_ChargPlug_ON, 0, 0);
0002c0  e3a03000          MOV      r3,#0
0002c4  e1a02003          MOV      r2,r3
0002c8  e59f1d94          LDR      r1,|L1.4196|
0002cc  e1a0000d          MOV      r0,sp
0002d0  ebfffffe          BL       vGfBuffBlitBitmapFull
;;;126    	vGfListExecute();
0002d4  ebfffffe          BL       vGfListExecute
;;;127    	
;;;128    	
;;;129    	
;;;130    	stImageLocal = stImage_DCDC_ON;
0002d8  e3a02014          MOV      r2,#0x14
0002dc  e59f1d88          LDR      r1,|L1.4204|
0002e0  e1a0000d          MOV      r0,sp
0002e4  ebfffffe          BL       __aeabi_memcpy4
;;;131    	stImageLocal.u32Address = PHYSICAL(&u32_DCDC_ON[0]);
0002e8  e59f0d80          LDR      r0,|L1.4208|
0002ec  e58d0000          STR      r0,[sp,#0]
;;;132    	vGfBuffBlitBitmapFull(&stImageLocal, &stImage_DCDC_ON, 0, 0);
0002f0  e3a03000          MOV      r3,#0
0002f4  e1a02003          MOV      r2,r3
0002f8  e59f1d6c          LDR      r1,|L1.4204|
0002fc  e1a0000d          MOV      r0,sp
000300  ebfffffe          BL       vGfBuffBlitBitmapFull
;;;133    	vGfListExecute();
000304  ebfffffe          BL       vGfListExecute
;;;134    	
;;;135    	
;;;136    	
;;;137    	stImageLocal = stImage_DippedHeadlight_ON;
000308  e3a02014          MOV      r2,#0x14
00030c  e59f1d60          LDR      r1,|L1.4212|
000310  e1a0000d          MOV      r0,sp
000314  ebfffffe          BL       __aeabi_memcpy4
;;;138    	stImageLocal.u32Address = PHYSICAL(&u32_DippedHeadlight_ON[0]);
000318  e59f0d58          LDR      r0,|L1.4216|
00031c  e58d0000          STR      r0,[sp,#0]
;;;139    	vGfBuffBlitBitmapFull(&stImageLocal, &stImage_DippedHeadlight_ON, 0, 0);
000320  e3a03000          MOV      r3,#0
000324  e1a02003          MOV      r2,r3
000328  e59f1d44          LDR      r1,|L1.4212|
00032c  e1a0000d          MOV      r0,sp
000330  ebfffffe          BL       vGfBuffBlitBitmapFull
;;;140    	vGfListExecute();
000334  ebfffffe          BL       vGfListExecute
;;;141    	
;;;142    	
;;;143    	
;;;144    	stImageLocal = stImage_Door_ON;
000338  e3a02014          MOV      r2,#0x14
00033c  e59f1d38          LDR      r1,|L1.4220|
000340  e1a0000d          MOV      r0,sp
000344  ebfffffe          BL       __aeabi_memcpy4
;;;145    	stImageLocal.u32Address = PHYSICAL(&u32_Door_ON[0]);
000348  e59f0d30          LDR      r0,|L1.4224|
00034c  e58d0000          STR      r0,[sp,#0]
;;;146    	vGfBuffBlitBitmapFull(&stImageLocal, &stImage_Door_ON, 0, 0);
000350  e3a03000          MOV      r3,#0
000354  e1a02003          MOV      r2,r3
000358  e59f1d1c          LDR      r1,|L1.4220|
00035c  e1a0000d          MOV      r0,sp
000360  ebfffffe          BL       vGfBuffBlitBitmapFull
;;;147    	vGfListExecute();
000364  ebfffffe          BL       vGfListExecute
;;;148    	
;;;149    	
;;;150    	
;;;151    	stImageLocal = stImage_EPS_ON;
000368  e3a02014          MOV      r2,#0x14
00036c  e59f1d10          LDR      r1,|L1.4228|
000370  e1a0000d          MOV      r0,sp
000374  ebfffffe          BL       __aeabi_memcpy4
;;;152    	stImageLocal.u32Address = PHYSICAL(&u32_EPS_ON[0]);
000378  e59f0d08          LDR      r0,|L1.4232|
00037c  e58d0000          STR      r0,[sp,#0]
;;;153    	vGfBuffBlitBitmapFull(&stImageLocal, &stImage_EPS_ON, 0, 0);
000380  e3a03000          MOV      r3,#0
000384  e1a02003          MOV      r2,r3
000388  e59f1cf4          LDR      r1,|L1.4228|
00038c  e1a0000d          MOV      r0,sp
000390  ebfffffe          BL       vGfBuffBlitBitmapFull
;;;154    	vGfListExecute();
000394  ebfffffe          BL       vGfListExecute
;;;155    	
;;;156    	
;;;157    	
;;;158    	stImageLocal = stImage_F_FogLamp_ON;
000398  e3a02014          MOV      r2,#0x14
00039c  e59f1ce8          LDR      r1,|L1.4236|
0003a0  e1a0000d          MOV      r0,sp
0003a4  ebfffffe          BL       __aeabi_memcpy4
;;;159    	stImageLocal.u32Address = PHYSICAL(&u32_F_FogLamp_ON[0]);
0003a8  e59f0ce0          LDR      r0,|L1.4240|
0003ac  e58d0000          STR      r0,[sp,#0]
;;;160    	vGfBuffBlitBitmapFull(&stImageLocal, &stImage_F_FogLamp_ON, 0, 0);
0003b0  e3a03000          MOV      r3,#0
0003b4  e1a02003          MOV      r2,r3
0003b8  e59f1ccc          LDR      r1,|L1.4236|
0003bc  e1a0000d          MOV      r0,sp
0003c0  ebfffffe          BL       vGfBuffBlitBitmapFull
;;;161    	vGfListExecute();
0003c4  ebfffffe          BL       vGfListExecute
;;;162    	
;;;163    	
;;;164    	
;;;165    	stImageLocal = stImage_HighBeam_ON;
0003c8  e3a02014          MOV      r2,#0x14
0003cc  e59f1cc0          LDR      r1,|L1.4244|
0003d0  e1a0000d          MOV      r0,sp
0003d4  ebfffffe          BL       __aeabi_memcpy4
;;;166    	stImageLocal.u32Address = PHYSICAL(&u32_HighBeam_ON[0]);
0003d8  e59f0cb8          LDR      r0,|L1.4248|
0003dc  e58d0000          STR      r0,[sp,#0]
;;;167    	vGfBuffBlitBitmapFull(&stImageLocal, &stImage_HighBeam_ON, 0, 0);
0003e0  e3a03000          MOV      r3,#0
0003e4  e1a02003          MOV      r2,r3
0003e8  e59f1ca4          LDR      r1,|L1.4244|
0003ec  e1a0000d          MOV      r0,sp
0003f0  ebfffffe          BL       vGfBuffBlitBitmapFull
;;;168    	vGfListExecute();
0003f4  ebfffffe          BL       vGfListExecute
;;;169    	
;;;170    	
;;;171    	
;;;172    	stImageLocal = stImage_InsulationErr_ON;
0003f8  e3a02014          MOV      r2,#0x14
0003fc  e59f1c98          LDR      r1,|L1.4252|
000400  e1a0000d          MOV      r0,sp
000404  ebfffffe          BL       __aeabi_memcpy4
;;;173    	stImageLocal.u32Address = PHYSICAL(&u32_InsulationErr_ON[0]);
000408  e59f0c90          LDR      r0,|L1.4256|
00040c  e58d0000          STR      r0,[sp,#0]
;;;174    	vGfBuffBlitBitmapFull(&stImageLocal, &stImage_InsulationErr_ON, 0, 0);
000410  e3a03000          MOV      r3,#0
000414  e1a02003          MOV      r2,r3
000418  e59f1c7c          LDR      r1,|L1.4252|
00041c  e1a0000d          MOV      r0,sp
000420  ebfffffe          BL       vGfBuffBlitBitmapFull
;;;175    	vGfListExecute();
000424  ebfffffe          BL       vGfListExecute
;;;176    	
;;;177    	
;;;178    	
;;;179    	stImageLocal = stImage_MotorErr_ON;
000428  e3a02014          MOV      r2,#0x14
00042c  e59f1c70          LDR      r1,|L1.4260|
000430  e1a0000d          MOV      r0,sp
000434  ebfffffe          BL       __aeabi_memcpy4
;;;180    	stImageLocal.u32Address = PHYSICAL(&u32_MotorErr_ON[0]);
000438  e59f0c68          LDR      r0,|L1.4264|
00043c  e58d0000          STR      r0,[sp,#0]
;;;181    	vGfBuffBlitBitmapFull(&stImageLocal, &stImage_MotorErr_ON, 0, 0);
000440  e3a03000          MOV      r3,#0
000444  e1a02003          MOV      r2,r3
000448  e59f1c54          LDR      r1,|L1.4260|
00044c  e1a0000d          MOV      r0,sp
000450  ebfffffe          BL       vGfBuffBlitBitmapFull
;;;182    	vGfListExecute();
000454  ebfffffe          BL       vGfListExecute
;;;183    	
;;;184    	
;;;185    	
;;;186    	stImageLocal = stImage_MotorOT_ON;
000458  e3a02014          MOV      r2,#0x14
00045c  e59f1c48          LDR      r1,|L1.4268|
000460  e1a0000d          MOV      r0,sp
000464  ebfffffe          BL       __aeabi_memcpy4
;;;187    	stImageLocal.u32Address = PHYSICAL(&u32_MotorOT_ON[0]);
000468  e59f0c40          LDR      r0,|L1.4272|
00046c  e58d0000          STR      r0,[sp,#0]
;;;188    	vGfBuffBlitBitmapFull(&stImageLocal, &stImage_MotorOT_ON, 0, 0);
000470  e3a03000          MOV      r3,#0
000474  e1a02003          MOV      r2,r3
000478  e59f1c2c          LDR      r1,|L1.4268|
00047c  e1a0000d          MOV      r0,sp
000480  ebfffffe          BL       vGfBuffBlitBitmapFull
;;;189    	vGfListExecute();
000484  ebfffffe          BL       vGfListExecute
;;;190    	
;;;191    	
;;;192    	
;;;193    	stImageLocal = stImage_MotorSpeed_ON;
000488  e3a02014          MOV      r2,#0x14
00048c  e59f1c20          LDR      r1,|L1.4276|
000490  e1a0000d          MOV      r0,sp
000494  ebfffffe          BL       __aeabi_memcpy4
;;;194    	stImageLocal.u32Address = PHYSICAL(&u32_MotorSpeed_ON[0]);
000498  e59f0c18          LDR      r0,|L1.4280|
00049c  e58d0000          STR      r0,[sp,#0]
;;;195    	vGfBuffBlitBitmapFull(&stImageLocal, &stImage_MotorSpeed_ON, 0, 0);
0004a0  e3a03000          MOV      r3,#0
0004a4  e1a02003          MOV      r2,r3
0004a8  e59f1c04          LDR      r1,|L1.4276|
0004ac  e1a0000d          MOV      r0,sp
0004b0  ebfffffe          BL       vGfBuffBlitBitmapFull
;;;196    	vGfListExecute();
0004b4  ebfffffe          BL       vGfListExecute
;;;197    	
;;;198    	
;;;199    	
;;;200    	stImageLocal = stImage_Parking_ON;
0004b8  e3a02014          MOV      r2,#0x14
0004bc  e59f1bf8          LDR      r1,|L1.4284|
0004c0  e1a0000d          MOV      r0,sp
0004c4  ebfffffe          BL       __aeabi_memcpy4
;;;201    	stImageLocal.u32Address = PHYSICAL(&u32_Parking_ON[0]);
0004c8  e59f0bf0          LDR      r0,|L1.4288|
0004cc  e58d0000          STR      r0,[sp,#0]
;;;202    	vGfBuffBlitBitmapFull(&stImageLocal, &stImage_Parking_ON, 0, 0);
0004d0  e3a03000          MOV      r3,#0
0004d4  e1a02003          MOV      r2,r3
0004d8  e59f1bdc          LDR      r1,|L1.4284|
0004dc  e1a0000d          MOV      r0,sp
0004e0  ebfffffe          BL       vGfBuffBlitBitmapFull
;;;203    	vGfListExecute();
0004e4  ebfffffe          BL       vGfListExecute
;;;204    	
;;;205    	
;;;206    	
;;;207    	stImageLocal = stImage_PowerBatteryCut_ON;
0004e8  e3a02014          MOV      r2,#0x14
0004ec  e59f1bd0          LDR      r1,|L1.4292|
0004f0  e1a0000d          MOV      r0,sp
0004f4  ebfffffe          BL       __aeabi_memcpy4
;;;208    	stImageLocal.u32Address = PHYSICAL(&u32_PowerBatteryCut_ON[0]);
0004f8  e59f0bc8          LDR      r0,|L1.4296|
0004fc  e58d0000          STR      r0,[sp,#0]
;;;209    	vGfBuffBlitBitmapFull(&stImageLocal, &stImage_PowerBatteryCut_ON, 0, 0);
000500  e3a03000          MOV      r3,#0
000504  e1a02003          MOV      r2,r3
000508  e59f1bb4          LDR      r1,|L1.4292|
00050c  e1a0000d          MOV      r0,sp
000510  ebfffffe          BL       vGfBuffBlitBitmapFull
;;;210    	vGfListExecute();
000514  ebfffffe          BL       vGfListExecute
;;;211    	
;;;212    	
;;;213    	
;;;214    	stImageLocal = stImage_PowerBattery_ON;
000518  e3a02014          MOV      r2,#0x14
00051c  e59f1ba8          LDR      r1,|L1.4300|
000520  e1a0000d          MOV      r0,sp
000524  ebfffffe          BL       __aeabi_memcpy4
;;;215    	stImageLocal.u32Address = PHYSICAL(&u32_PowerBattery_ON[0]);
000528  e59f0ba0          LDR      r0,|L1.4304|
00052c  e58d0000          STR      r0,[sp,#0]
;;;216    	vGfBuffBlitBitmapFull(&stImageLocal, &stImage_PowerBattery_ON, 0, 0);
000530  e3a03000          MOV      r3,#0
000534  e1a02003          MOV      r2,r3
000538  e59f1b8c          LDR      r1,|L1.4300|
00053c  e1a0000d          MOV      r0,sp
000540  ebfffffe          BL       vGfBuffBlitBitmapFull
;;;217    	vGfListExecute();
000544  ebfffffe          BL       vGfListExecute
;;;218    	
;;;219    	
;;;220    	stImageLocal = stImage_SafetyBelt_ON;
000548  e3a02014          MOV      r2,#0x14
00054c  e59f1b80          LDR      r1,|L1.4308|
000550  e1a0000d          MOV      r0,sp
000554  ebfffffe          BL       __aeabi_memcpy4
;;;221    	stImageLocal.u32Address = PHYSICAL(&u32_SafetyBelt_ON[0]);
000558  e59f0b78          LDR      r0,|L1.4312|
00055c  e58d0000          STR      r0,[sp,#0]
;;;222    	vGfBuffBlitBitmapFull(&stImageLocal, &stImage_SafetyBelt_ON, 0, 0);
000560  e3a03000          MOV      r3,#0
000564  e1a02003          MOV      r2,r3
000568  e59f1b64          LDR      r1,|L1.4308|
00056c  e1a0000d          MOV      r0,sp
000570  ebfffffe          BL       vGfBuffBlitBitmapFull
;;;223    	vGfListExecute();
000574  ebfffffe          BL       vGfListExecute
;;;224    	
;;;225    	
;;;226    	
;;;227    	stImageLocal = stImage_SmallLight_ON;
000578  e3a02014          MOV      r2,#0x14
00057c  e59f1b58          LDR      r1,|L1.4316|
000580  e1a0000d          MOV      r0,sp
000584  ebfffffe          BL       __aeabi_memcpy4
;;;228    	stImageLocal.u32Address = PHYSICAL(&u32_SmallLight_ON[0]);
000588  e59f0b50          LDR      r0,|L1.4320|
00058c  e58d0000          STR      r0,[sp,#0]
;;;229    	vGfBuffBlitBitmapFull(&stImageLocal, &stImage_SmallLight_ON, 0, 0);
000590  e3a03000          MOV      r3,#0
000594  e1a02003          MOV      r2,r3
000598  e59f1b3c          LDR      r1,|L1.4316|
00059c  e1a0000d          MOV      r0,sp
0005a0  ebfffffe          BL       vGfBuffBlitBitmapFull
;;;230    	vGfListExecute();
0005a4  ebfffffe          BL       vGfListExecute
;;;231    	
;;;232    	
;;;233    	
;;;234    	stImageLocal = stImage_SOC_ON;
0005a8  e3a02014          MOV      r2,#0x14
0005ac  e59f1b30          LDR      r1,|L1.4324|
0005b0  e1a0000d          MOV      r0,sp
0005b4  ebfffffe          BL       __aeabi_memcpy4
;;;235    	stImageLocal.u32Address = PHYSICAL(&u32_SOC_ON[0]);
0005b8  e59f0b28          LDR      r0,|L1.4328|
0005bc  e58d0000          STR      r0,[sp,#0]
;;;236    	vGfBuffBlitBitmapFull(&stImageLocal, &stImage_SOC_ON, 0, 0);
0005c0  e3a03000          MOV      r3,#0
0005c4  e1a02003          MOV      r2,r3
0005c8  e59f1b14          LDR      r1,|L1.4324|
0005cc  e1a0000d          MOV      r0,sp
0005d0  ebfffffe          BL       vGfBuffBlitBitmapFull
;;;237    	vGfListExecute();
0005d4  ebfffffe          BL       vGfListExecute
;;;238    	
;;;239    	
;;;240    	
;;;241    	stImageLocal = stImage_SystemErr_ON;
0005d8  e3a02014          MOV      r2,#0x14
0005dc  e59f1b08          LDR      r1,|L1.4332|
0005e0  e1a0000d          MOV      r0,sp
0005e4  ebfffffe          BL       __aeabi_memcpy4
;;;242    	stImageLocal.u32Address = PHYSICAL(&u32_SystemErr_ON[0]);
0005e8  e59f0b00          LDR      r0,|L1.4336|
0005ec  e58d0000          STR      r0,[sp,#0]
;;;243    	vGfBuffBlitBitmapFull(&stImageLocal, &stImage_SystemErr_ON, 0, 0);
0005f0  e3a03000          MOV      r3,#0
0005f4  e1a02003          MOV      r2,r3
0005f8  e59f1aec          LDR      r1,|L1.4332|
0005fc  e1a0000d          MOV      r0,sp
000600  ebfffffe          BL       vGfBuffBlitBitmapFull
;;;244    	vGfListExecute();
000604  ebfffffe          BL       vGfListExecute
;;;245    	
;;;246    	
;;;247    	stImageLocal = stImage_BatDownInval;
000608  e3a02014          MOV      r2,#0x14
00060c  e59f1ae0          LDR      r1,|L1.4340|
000610  e1a0000d          MOV      r0,sp
000614  ebfffffe          BL       __aeabi_memcpy4
;;;248    	stImageLocal.u32Address = PHYSICAL(&u32_BatDownInval[0]);
000618  e59f0ad8          LDR      r0,|L1.4344|
00061c  e58d0000          STR      r0,[sp,#0]
;;;249    	vGfBuffBlitBitmapFull(&stImageLocal, &stImage_BatDownInval, 0, 0);
000620  e3a03000          MOV      r3,#0
000624  e1a02003          MOV      r2,r3
000628  e59f1ac4          LDR      r1,|L1.4340|
00062c  e1a0000d          MOV      r0,sp
000630  ebfffffe          BL       vGfBuffBlitBitmapFull
;;;250    	vGfListExecute();
000634  ebfffffe          BL       vGfListExecute
;;;251    	
;;;252    	stImageLocal = stImage_BatDownVal;
000638  e3a02014          MOV      r2,#0x14
00063c  e59f1ab8          LDR      r1,|L1.4348|
000640  e1a0000d          MOV      r0,sp
000644  ebfffffe          BL       __aeabi_memcpy4
;;;253    	stImageLocal.u32Address = PHYSICAL(&u32_BatDownVal[0]);
000648  e59f0ab0          LDR      r0,|L1.4352|
00064c  e58d0000          STR      r0,[sp,#0]
;;;254    	vGfBuffBlitBitmapFull(&stImageLocal, &stImage_BatDownVal, 0, 0);
000650  e3a03000          MOV      r3,#0
000654  e1a02003          MOV      r2,r3
000658  e59f1a9c          LDR      r1,|L1.4348|
00065c  e1a0000d          MOV      r0,sp
000660  ebfffffe          BL       vGfBuffBlitBitmapFull
;;;255    	vGfListExecute();
000664  ebfffffe          BL       vGfListExecute
;;;256    	
;;;257    	stImageLocal = stImage_BatInval;
000668  e3a02014          MOV      r2,#0x14
00066c  e59f1a90          LDR      r1,|L1.4356|
000670  e1a0000d          MOV      r0,sp
000674  ebfffffe          BL       __aeabi_memcpy4
;;;258    	stImageLocal.u32Address = PHYSICAL(&u32_BatInval[0]);
000678  e59f0a88          LDR      r0,|L1.4360|
00067c  e58d0000          STR      r0,[sp,#0]
;;;259    	vGfBuffBlitBitmapFull(&stImageLocal, &stImage_BatInval, 0, 0);
000680  e3a03000          MOV      r3,#0
000684  e1a02003          MOV      r2,r3
000688  e59f1a74          LDR      r1,|L1.4356|
00068c  e1a0000d          MOV      r0,sp
000690  ebfffffe          BL       vGfBuffBlitBitmapFull
;;;260    	vGfListExecute();
000694  ebfffffe          BL       vGfListExecute
;;;261    	
;;;262    	stImageLocal = stImage_BatUp;
000698  e3a02014          MOV      r2,#0x14
00069c  e59f1a68          LDR      r1,|L1.4364|
0006a0  e1a0000d          MOV      r0,sp
0006a4  ebfffffe          BL       __aeabi_memcpy4
;;;263    	stImageLocal.u32Address = PHYSICAL(&u32_BatUp[0]);
0006a8  e59f0a60          LDR      r0,|L1.4368|
0006ac  e58d0000          STR      r0,[sp,#0]
;;;264    	vGfBuffBlitBitmapFull(&stImageLocal, &stImage_BatUp, 0, 0);
0006b0  e3a03000          MOV      r3,#0
0006b4  e1a02003          MOV      r2,r3
0006b8  e59f1a4c          LDR      r1,|L1.4364|
0006bc  e1a0000d          MOV      r0,sp
0006c0  ebfffffe          BL       vGfBuffBlitBitmapFull
;;;265    	vGfListExecute();
0006c4  ebfffffe          BL       vGfListExecute
;;;266    	
;;;267    	stImageLocal = stImage_BatVal;
0006c8  e3a02014          MOV      r2,#0x14
0006cc  e59f1a40          LDR      r1,|L1.4372|
0006d0  e1a0000d          MOV      r0,sp
0006d4  ebfffffe          BL       __aeabi_memcpy4
;;;268    	stImageLocal.u32Address = PHYSICAL(&u32_BatVal[0]);
0006d8  e59f0a38          LDR      r0,|L1.4376|
0006dc  e58d0000          STR      r0,[sp,#0]
;;;269    	vGfBuffBlitBitmapFull(&stImageLocal, &stImage_BatVal, 0, 0);
0006e0  e3a03000          MOV      r3,#0
0006e4  e1a02003          MOV      r2,r3
0006e8  e59f1a24          LDR      r1,|L1.4372|
0006ec  e1a0000d          MOV      r0,sp
0006f0  ebfffffe          BL       vGfBuffBlitBitmapFull
;;;270    	vGfListExecute();
0006f4  ebfffffe          BL       vGfListExecute
;;;271    	
;;;272    	stImageLocal = stImage_ProInval;
0006f8  e3a02014          MOV      r2,#0x14
0006fc  e59f1a18          LDR      r1,|L1.4380|
000700  e1a0000d          MOV      r0,sp
000704  ebfffffe          BL       __aeabi_memcpy4
;;;273    	stImageLocal.u32Address = PHYSICAL(&u32_ProInval[0]);
000708  e59f0a10          LDR      r0,|L1.4384|
00070c  e58d0000          STR      r0,[sp,#0]
;;;274    	vGfBuffBlitBitmapFull(&stImageLocal, &stImage_ProInval, 0, 0);
000710  e3a03000          MOV      r3,#0
000714  e1a02003          MOV      r2,r3
000718  e59f19fc          LDR      r1,|L1.4380|
00071c  e1a0000d          MOV      r0,sp
000720  ebfffffe          BL       vGfBuffBlitBitmapFull
;;;275    	vGfListExecute();
000724  ebfffffe          BL       vGfListExecute
;;;276    	
;;;277    	stImageLocal = stImage_ProLeft;
000728  e3a02014          MOV      r2,#0x14
00072c  e59f19f0          LDR      r1,|L1.4388|
000730  e1a0000d          MOV      r0,sp
000734  ebfffffe          BL       __aeabi_memcpy4
;;;278    	stImageLocal.u32Address = PHYSICAL(&u32_ProLeft[0]);
000738  e59f09e8          LDR      r0,|L1.4392|
00073c  e58d0000          STR      r0,[sp,#0]
;;;279    	vGfBuffBlitBitmapFull(&stImageLocal, &stImage_ProLeft, 0, 0);
000740  e3a03000          MOV      r3,#0
000744  e1a02003          MOV      r2,r3
000748  e59f19d4          LDR      r1,|L1.4388|
00074c  e1a0000d          MOV      r0,sp
000750  ebfffffe          BL       vGfBuffBlitBitmapFull
;;;280    	vGfListExecute();
000754  ebfffffe          BL       vGfListExecute
;;;281    	
;;;282    	stImageLocal = stImage_ProRight;
000758  e3a02014          MOV      r2,#0x14
00075c  e59f19c8          LDR      r1,|L1.4396|
000760  e1a0000d          MOV      r0,sp
000764  ebfffffe          BL       __aeabi_memcpy4
;;;283    	stImageLocal.u32Address = PHYSICAL(&u32_ProRight[0]);
000768  e59f09c0          LDR      r0,|L1.4400|
00076c  e58d0000          STR      r0,[sp,#0]
;;;284    	vGfBuffBlitBitmapFull(&stImageLocal, &stImage_ProRight, 0, 0);
000770  e3a03000          MOV      r3,#0
000774  e1a02003          MOV      r2,r3
000778  e59f19ac          LDR      r1,|L1.4396|
00077c  e1a0000d          MOV      r0,sp
000780  ebfffffe          BL       vGfBuffBlitBitmapFull
;;;285    	vGfListExecute();
000784  ebfffffe          BL       vGfListExecute
;;;286    	
;;;287    	stImageLocal = stImage_ProVal;
000788  e3a02014          MOV      r2,#0x14
00078c  e59f19a0          LDR      r1,|L1.4404|
000790  e1a0000d          MOV      r0,sp
000794  ebfffffe          BL       __aeabi_memcpy4
;;;288    	stImageLocal.u32Address = PHYSICAL(&u32_ProVal[0]);
000798  e59f0998          LDR      r0,|L1.4408|
00079c  e58d0000          STR      r0,[sp,#0]
;;;289    	vGfBuffBlitBitmapFull(&stImageLocal, &stImage_ProVal, 0, 0);
0007a0  e3a03000          MOV      r3,#0
0007a4  e1a02003          MOV      r2,r3
0007a8  e59f1984          LDR      r1,|L1.4404|
0007ac  e1a0000d          MOV      r0,sp
0007b0  ebfffffe          BL       vGfBuffBlitBitmapFull
;;;290    	vGfListExecute();
0007b4  ebfffffe          BL       vGfListExecute
;;;291    
;;;292    	stImageLocal = stImage_font[0];
0007b8  e3a02014          MOV      r2,#0x14
0007bc  e59f1978          LDR      r1,|L1.4412|
0007c0  e1a0000d          MOV      r0,sp
0007c4  ebfffffe          BL       __aeabi_memcpy4
;;;293    	stImageLocal.u32Address = PHYSICAL(&u32_font0[0]);
0007c8  e59f0970          LDR      r0,|L1.4416|
0007cc  e58d0000          STR      r0,[sp,#0]
;;;294    	vGfBuffBlitBitmapFull(&stImageLocal, &stImage_font[0], 0, 0);
0007d0  e3a03000          MOV      r3,#0
0007d4  e1a02003          MOV      r2,r3
0007d8  e59f195c          LDR      r1,|L1.4412|
0007dc  e1a0000d          MOV      r0,sp
0007e0  ebfffffe          BL       vGfBuffBlitBitmapFull
;;;295    	vGfListExecute();
0007e4  ebfffffe          BL       vGfListExecute
;;;296    	
;;;297    	stImageLocal = stImage_font[1];
0007e8  e3a02014          MOV      r2,#0x14
0007ec  e59f1950          LDR      r1,|L1.4420|
0007f0  e1a0000d          MOV      r0,sp
0007f4  ebfffffe          BL       __aeabi_memcpy4
;;;298    	stImageLocal.u32Address = PHYSICAL(&u32_font1[0]);
0007f8  e59f0948          LDR      r0,|L1.4424|
0007fc  e58d0000          STR      r0,[sp,#0]
;;;299    	vGfBuffBlitBitmapFull(&stImageLocal, &stImage_font[1], 0, 0);
000800  e3a03000          MOV      r3,#0
000804  e1a02003          MOV      r2,r3
000808  e59f1934          LDR      r1,|L1.4420|
00080c  e1a0000d          MOV      r0,sp
000810  ebfffffe          BL       vGfBuffBlitBitmapFull
;;;300    	vGfListExecute();
000814  ebfffffe          BL       vGfListExecute
;;;301    	
;;;302    	stImageLocal = stImage_font[2];
000818  e3a02014          MOV      r2,#0x14
00081c  e59f1928          LDR      r1,|L1.4428|
000820  e1a0000d          MOV      r0,sp
000824  ebfffffe          BL       __aeabi_memcpy4
;;;303    	stImageLocal.u32Address = PHYSICAL(&u32_font2[0]);
000828  e59f0920          LDR      r0,|L1.4432|
00082c  e58d0000          STR      r0,[sp,#0]
;;;304    	vGfBuffBlitBitmapFull(&stImageLocal, &stImage_font[2], 0, 0);
000830  e3a03000          MOV      r3,#0
000834  e1a02003          MOV      r2,r3
000838  e59f190c          LDR      r1,|L1.4428|
00083c  e1a0000d          MOV      r0,sp
000840  ebfffffe          BL       vGfBuffBlitBitmapFull
;;;305    	vGfListExecute();
000844  ebfffffe          BL       vGfListExecute
;;;306    	
;;;307    	stImageLocal = stImage_font[3];
000848  e3a02014          MOV      r2,#0x14
00084c  e59f1900          LDR      r1,|L1.4436|
000850  e1a0000d          MOV      r0,sp
000854  ebfffffe          BL       __aeabi_memcpy4
;;;308    	stImageLocal.u32Address = PHYSICAL(&u32_font3[0]);
000858  e59f08f8          LDR      r0,|L1.4440|
00085c  e58d0000          STR      r0,[sp,#0]
;;;309    	vGfBuffBlitBitmapFull(&stImageLocal, &stImage_font[3], 0, 0);
000860  e3a03000          MOV      r3,#0
000864  e1a02003          MOV      r2,r3
000868  e59f18e4          LDR      r1,|L1.4436|
00086c  e1a0000d          MOV      r0,sp
000870  ebfffffe          BL       vGfBuffBlitBitmapFull
;;;310    	vGfListExecute();
000874  ebfffffe          BL       vGfListExecute
;;;311    	
;;;312    	stImageLocal = stImage_font[4];
000878  e3a02014          MOV      r2,#0x14
00087c  e59f18d8          LDR      r1,|L1.4444|
000880  e1a0000d          MOV      r0,sp
000884  ebfffffe          BL       __aeabi_memcpy4
;;;313    	stImageLocal.u32Address = PHYSICAL(&u32_font4[0]);
000888  e59f08d0          LDR      r0,|L1.4448|
00088c  e58d0000          STR      r0,[sp,#0]
;;;314    	vGfBuffBlitBitmapFull(&stImageLocal, &stImage_font[4], 0, 0);
000890  e3a03000          MOV      r3,#0
000894  e1a02003          MOV      r2,r3
000898  e59f18bc          LDR      r1,|L1.4444|
00089c  e1a0000d          MOV      r0,sp
0008a0  ebfffffe          BL       vGfBuffBlitBitmapFull
;;;315    	vGfListExecute();
0008a4  ebfffffe          BL       vGfListExecute
;;;316    	
;;;317    	stImageLocal = stImage_font[5];
0008a8  e3a02014          MOV      r2,#0x14
0008ac  e59f18b0          LDR      r1,|L1.4452|
0008b0  e1a0000d          MOV      r0,sp
0008b4  ebfffffe          BL       __aeabi_memcpy4
;;;318    	stImageLocal.u32Address = PHYSICAL(&u32_font5[0]);
0008b8  e59f08a8          LDR      r0,|L1.4456|
0008bc  e58d0000          STR      r0,[sp,#0]
;;;319    	vGfBuffBlitBitmapFull(&stImageLocal, &stImage_font[5], 0, 0);
0008c0  e3a03000          MOV      r3,#0
0008c4  e1a02003          MOV      r2,r3
0008c8  e59f1894          LDR      r1,|L1.4452|
0008cc  e1a0000d          MOV      r0,sp
0008d0  ebfffffe          BL       vGfBuffBlitBitmapFull
;;;320    	vGfListExecute();
0008d4  ebfffffe          BL       vGfListExecute
;;;321    	
;;;322    	stImageLocal = stImage_font[6];
0008d8  e3a02014          MOV      r2,#0x14
0008dc  e59f1888          LDR      r1,|L1.4460|
0008e0  e1a0000d          MOV      r0,sp
0008e4  ebfffffe          BL       __aeabi_memcpy4
;;;323    	stImageLocal.u32Address = PHYSICAL(&u32_font6[0]);
0008e8  e59f0880          LDR      r0,|L1.4464|
0008ec  e58d0000          STR      r0,[sp,#0]
;;;324    	vGfBuffBlitBitmapFull(&stImageLocal, &stImage_font[6], 0, 0);
0008f0  e3a03000          MOV      r3,#0
0008f4  e1a02003          MOV      r2,r3
0008f8  e59f186c          LDR      r1,|L1.4460|
0008fc  e1a0000d          MOV      r0,sp
000900  ebfffffe          BL       vGfBuffBlitBitmapFull
;;;325    	vGfListExecute();
000904  ebfffffe          BL       vGfListExecute
;;;326    	
;;;327    	stImageLocal = stImage_font[7];
000908  e3a02014          MOV      r2,#0x14
00090c  e59f1860          LDR      r1,|L1.4468|
000910  e1a0000d          MOV      r0,sp
000914  ebfffffe          BL       __aeabi_memcpy4
;;;328    	stImageLocal.u32Address = PHYSICAL(&u32_font7[0]);
000918  e59f0858          LDR      r0,|L1.4472|
00091c  e58d0000          STR      r0,[sp,#0]
;;;329    	vGfBuffBlitBitmapFull(&stImageLocal, &stImage_font[7], 0, 0);
000920  e3a03000          MOV      r3,#0
000924  e1a02003          MOV      r2,r3
000928  e59f1844          LDR      r1,|L1.4468|
00092c  e1a0000d          MOV      r0,sp
000930  ebfffffe          BL       vGfBuffBlitBitmapFull
;;;330    	vGfListExecute();
000934  ebfffffe          BL       vGfListExecute
;;;331    	
;;;332    	stImageLocal = stImage_font[8];
000938  e3a02014          MOV      r2,#0x14
00093c  e59f1838          LDR      r1,|L1.4476|
000940  e1a0000d          MOV      r0,sp
000944  ebfffffe          BL       __aeabi_memcpy4
;;;333    	stImageLocal.u32Address = PHYSICAL(&u32_font8[0]);
000948  e59f0830          LDR      r0,|L1.4480|
00094c  e58d0000          STR      r0,[sp,#0]
;;;334    	vGfBuffBlitBitmapFull(&stImageLocal, &stImage_font[8], 0, 0);
000950  e3a03000          MOV      r3,#0
000954  e1a02003          MOV      r2,r3
000958  e59f181c          LDR      r1,|L1.4476|
00095c  e1a0000d          MOV      r0,sp
000960  ebfffffe          BL       vGfBuffBlitBitmapFull
;;;335    	vGfListExecute();
000964  ebfffffe          BL       vGfListExecute
;;;336    	
;;;337    	stImageLocal = stImage_font[9];
000968  e3a02014          MOV      r2,#0x14
00096c  e59f1810          LDR      r1,|L1.4484|
000970  e1a0000d          MOV      r0,sp
000974  ebfffffe          BL       __aeabi_memcpy4
;;;338    	stImageLocal.u32Address = PHYSICAL(&u32_font9[0]);
000978  e59f0808          LDR      r0,|L1.4488|
00097c  e58d0000          STR      r0,[sp,#0]
;;;339    	vGfBuffBlitBitmapFull(&stImageLocal, &stImage_font[9], 0, 0);
000980  e3a03000          MOV      r3,#0
000984  e1a02003          MOV      r2,r3
000988  e59f17f4          LDR      r1,|L1.4484|
00098c  e1a0000d          MOV      r0,sp
000990  ebfffffe          BL       vGfBuffBlitBitmapFull
;;;340    	vGfListExecute();
000994  ebfffffe          BL       vGfListExecute
;;;341    
;;;342    	stImageLocal = stImage_font[10];
000998  e3a02014          MOV      r2,#0x14
00099c  e59f17e8          LDR      r1,|L1.4492|
0009a0  e1a0000d          MOV      r0,sp
0009a4  ebfffffe          BL       __aeabi_memcpy4
;;;343    	stImageLocal.u32Address = PHYSICAL(&u32_fontdp[0]);
0009a8  e59f07e0          LDR      r0,|L1.4496|
0009ac  e58d0000          STR      r0,[sp,#0]
;;;344    	vGfBuffBlitBitmapFull(&stImageLocal, &stImage_font[10], 0, 0);
0009b0  e3a03000          MOV      r3,#0
0009b4  e1a02003          MOV      r2,r3
0009b8  e59f17cc          LDR      r1,|L1.4492|
0009bc  e1a0000d          MOV      r0,sp
0009c0  ebfffffe          BL       vGfBuffBlitBitmapFull
;;;345    	vGfListExecute();
0009c4  ebfffffe          BL       vGfListExecute
;;;346     
;;;347    	stImageLocal = stImage_font[11];
0009c8  e3a02014          MOV      r2,#0x14
0009cc  e59f17c0          LDR      r1,|L1.4500|
0009d0  e1a0000d          MOV      r0,sp
0009d4  ebfffffe          BL       __aeabi_memcpy4
;;;348    	stImageLocal.u32Address = PHYSICAL(&u32_font_ne[0]);
0009d8  e59f07b8          LDR      r0,|L1.4504|
0009dc  e58d0000          STR      r0,[sp,#0]
;;;349    	vGfBuffBlitBitmapFull(&stImageLocal, &stImage_font[11], 0, 0);
0009e0  e3a03000          MOV      r3,#0
0009e4  e1a02003          MOV      r2,r3
0009e8  e59f17a4          LDR      r1,|L1.4500|
0009ec  e1a0000d          MOV      r0,sp
0009f0  ebfffffe          BL       vGfBuffBlitBitmapFull
;;;350    	vGfListExecute();
0009f4  ebfffffe          BL       vGfListExecute
;;;351    
;;;352    
;;;353    
;;;354    	stImageLocal = stImage_km;
0009f8  e3a02014          MOV      r2,#0x14
0009fc  e59f1798          LDR      r1,|L1.4508|
000a00  e1a0000d          MOV      r0,sp
000a04  ebfffffe          BL       __aeabi_memcpy4
;;;355    	stImageLocal.u32Address = PHYSICAL(&u32_km[0]);
000a08  e59f0790          LDR      r0,|L1.4512|
000a0c  e58d0000          STR      r0,[sp,#0]
;;;356    	vGfBuffBlitBitmapFull(&stImageLocal, &stImage_km, 0, 0);
000a10  e3a03000          MOV      r3,#0
000a14  e1a02003          MOV      r2,r3
000a18  e59f177c          LDR      r1,|L1.4508|
000a1c  e1a0000d          MOV      r0,sp
000a20  ebfffffe          BL       vGfBuffBlitBitmapFull
;;;357    	vGfListExecute();
000a24  ebfffffe          BL       vGfListExecute
;;;358    	
;;;359    	
;;;360    	
;;;361    	
;;;362    	
;;;363    	stImageLocal = stImage_totaldistance;
000a28  e3a02014          MOV      r2,#0x14
000a2c  e59f1770          LDR      r1,|L1.4516|
000a30  e1a0000d          MOV      r0,sp
000a34  ebfffffe          BL       __aeabi_memcpy4
;;;364    	stImageLocal.u32Address = PHYSICAL(&u32_totaldistance[0]);
000a38  e59f0768          LDR      r0,|L1.4520|
000a3c  e58d0000          STR      r0,[sp,#0]
;;;365    	vGfBuffBlitBitmapFull(&stImageLocal, &stImage_totaldistance, 0, 0);
000a40  e3a03000          MOV      r3,#0
000a44  e1a02003          MOV      r2,r3
000a48  e59f1754          LDR      r1,|L1.4516|
000a4c  e1a0000d          MOV      r0,sp
000a50  ebfffffe          BL       vGfBuffBlitBitmapFull
;;;366    	vGfListExecute();
000a54  ebfffffe          BL       vGfListExecute
;;;367    	
;;;368    	stImageLocal = stImage_tripdistance;
000a58  e3a02014          MOV      r2,#0x14
000a5c  e59f1748          LDR      r1,|L1.4524|
000a60  e1a0000d          MOV      r0,sp
000a64  ebfffffe          BL       __aeabi_memcpy4
;;;369    	stImageLocal.u32Address = PHYSICAL(&u32_tripdistance[0]);
000a68  e59f0740          LDR      r0,|L1.4528|
000a6c  e58d0000          STR      r0,[sp,#0]
;;;370    	vGfBuffBlitBitmapFull(&stImageLocal, &stImage_tripdistance, 0, 0);
000a70  e3a03000          MOV      r3,#0
000a74  e1a02003          MOV      r2,r3
000a78  e59f172c          LDR      r1,|L1.4524|
000a7c  e1a0000d          MOV      r0,sp
000a80  ebfffffe          BL       vGfBuffBlitBitmapFull
;;;371    	vGfListExecute();
000a84  ebfffffe          BL       vGfListExecute
;;;372    	
;;;373    	stImageLocal = stImage_wfont[0];
000a88  e3a02014          MOV      r2,#0x14
000a8c  e59f1720          LDR      r1,|L1.4532|
000a90  e1a0000d          MOV      r0,sp
000a94  ebfffffe          BL       __aeabi_memcpy4
;;;374    	stImageLocal.u32Address = PHYSICAL(&u32_wfont0[0]);
000a98  e59f0718          LDR      r0,|L1.4536|
000a9c  e58d0000          STR      r0,[sp,#0]
;;;375    	vGfBuffBlitBitmapFull(&stImageLocal, &stImage_wfont[0], 0, 0);
000aa0  e3a03000          MOV      r3,#0
000aa4  e1a02003          MOV      r2,r3
000aa8  e59f1704          LDR      r1,|L1.4532|
000aac  e1a0000d          MOV      r0,sp
000ab0  ebfffffe          BL       vGfBuffBlitBitmapFull
;;;376    	vGfListExecute();
000ab4  ebfffffe          BL       vGfListExecute
;;;377    	
;;;378    	stImageLocal = stImage_wfont[1];
000ab8  e3a02014          MOV      r2,#0x14
000abc  e59f16f8          LDR      r1,|L1.4540|
000ac0  e1a0000d          MOV      r0,sp
000ac4  ebfffffe          BL       __aeabi_memcpy4
;;;379    	stImageLocal.u32Address = PHYSICAL(&u32_wfont1[0]);
000ac8  e59f06f0          LDR      r0,|L1.4544|
000acc  e58d0000          STR      r0,[sp,#0]
;;;380    	vGfBuffBlitBitmapFull(&stImageLocal, &stImage_wfont[1], 0, 0);
000ad0  e3a03000          MOV      r3,#0
000ad4  e1a02003          MOV      r2,r3
000ad8  e59f16dc          LDR      r1,|L1.4540|
000adc  e1a0000d          MOV      r0,sp
000ae0  ebfffffe          BL       vGfBuffBlitBitmapFull
;;;381    	vGfListExecute();
000ae4  ebfffffe          BL       vGfListExecute
;;;382    	
;;;383    	stImageLocal = stImage_wfont[2];
000ae8  e3a02014          MOV      r2,#0x14
000aec  e59f16d0          LDR      r1,|L1.4548|
000af0  e1a0000d          MOV      r0,sp
000af4  ebfffffe          BL       __aeabi_memcpy4
;;;384    	stImageLocal.u32Address = PHYSICAL(&u32_wfont2[0]);
000af8  e59f06c8          LDR      r0,|L1.4552|
000afc  e58d0000          STR      r0,[sp,#0]
;;;385    	vGfBuffBlitBitmapFull(&stImageLocal, &stImage_wfont[2], 0, 0);
000b00  e3a03000          MOV      r3,#0
000b04  e1a02003          MOV      r2,r3
000b08  e59f16b4          LDR      r1,|L1.4548|
000b0c  e1a0000d          MOV      r0,sp
000b10  ebfffffe          BL       vGfBuffBlitBitmapFull
;;;386    	vGfListExecute();
000b14  ebfffffe          BL       vGfListExecute
;;;387    	
;;;388    	stImageLocal = stImage_wfont[3];
000b18  e3a02014          MOV      r2,#0x14
000b1c  e59f16a8          LDR      r1,|L1.4556|
000b20  e1a0000d          MOV      r0,sp
000b24  ebfffffe          BL       __aeabi_memcpy4
;;;389    	stImageLocal.u32Address = PHYSICAL(&u32_wfont3[0]);
000b28  e59f06a0          LDR      r0,|L1.4560|
000b2c  e58d0000          STR      r0,[sp,#0]
;;;390    	vGfBuffBlitBitmapFull(&stImageLocal, &stImage_wfont[3], 0, 0);
000b30  e3a03000          MOV      r3,#0
000b34  e1a02003          MOV      r2,r3
000b38  e59f168c          LDR      r1,|L1.4556|
000b3c  e1a0000d          MOV      r0,sp
000b40  ebfffffe          BL       vGfBuffBlitBitmapFull
;;;391    	vGfListExecute();
000b44  ebfffffe          BL       vGfListExecute
;;;392    	
;;;393    	stImageLocal = stImage_wfont[4];
000b48  e3a02014          MOV      r2,#0x14
000b4c  e59f1680          LDR      r1,|L1.4564|
000b50  e1a0000d          MOV      r0,sp
000b54  ebfffffe          BL       __aeabi_memcpy4
;;;394    	stImageLocal.u32Address = PHYSICAL(&u32_wfont4[0]);
000b58  e59f0678          LDR      r0,|L1.4568|
000b5c  e58d0000          STR      r0,[sp,#0]
;;;395    	vGfBuffBlitBitmapFull(&stImageLocal, &stImage_wfont[4], 0, 0);
000b60  e3a03000          MOV      r3,#0
000b64  e1a02003          MOV      r2,r3
000b68  e59f1664          LDR      r1,|L1.4564|
000b6c  e1a0000d          MOV      r0,sp
000b70  ebfffffe          BL       vGfBuffBlitBitmapFull
;;;396    	vGfListExecute();
000b74  ebfffffe          BL       vGfListExecute
;;;397    	
;;;398    	stImageLocal = stImage_wfont[5];
000b78  e3a02014          MOV      r2,#0x14
000b7c  e59f1658          LDR      r1,|L1.4572|
000b80  e1a0000d          MOV      r0,sp
000b84  ebfffffe          BL       __aeabi_memcpy4
;;;399    	stImageLocal.u32Address = PHYSICAL(&u32_wfont5[0]);
000b88  e59f0650          LDR      r0,|L1.4576|
000b8c  e58d0000          STR      r0,[sp,#0]
;;;400    	vGfBuffBlitBitmapFull(&stImageLocal, &stImage_wfont[5], 0, 0);
000b90  e3a03000          MOV      r3,#0
000b94  e1a02003          MOV      r2,r3
000b98  e59f163c          LDR      r1,|L1.4572|
000b9c  e1a0000d          MOV      r0,sp
000ba0  ebfffffe          BL       vGfBuffBlitBitmapFull
;;;401    	vGfListExecute();
000ba4  ebfffffe          BL       vGfListExecute
;;;402    	
;;;403    	stImageLocal = stImage_wfont[6];
000ba8  e3a02014          MOV      r2,#0x14
000bac  e59f1630          LDR      r1,|L1.4580|
000bb0  e1a0000d          MOV      r0,sp
000bb4  ebfffffe          BL       __aeabi_memcpy4
;;;404    	stImageLocal.u32Address = PHYSICAL(&u32_wfont6[0]);
000bb8  e59f0628          LDR      r0,|L1.4584|
000bbc  e58d0000          STR      r0,[sp,#0]
;;;405    	vGfBuffBlitBitmapFull(&stImageLocal, &stImage_wfont[6], 0, 0);
000bc0  e3a03000          MOV      r3,#0
000bc4  e1a02003          MOV      r2,r3
000bc8  e59f1614          LDR      r1,|L1.4580|
000bcc  e1a0000d          MOV      r0,sp
000bd0  ebfffffe          BL       vGfBuffBlitBitmapFull
;;;406    	vGfListExecute();
000bd4  ebfffffe          BL       vGfListExecute
;;;407    	
;;;408    	stImageLocal = stImage_wfont[7];
000bd8  e3a02014          MOV      r2,#0x14
000bdc  e59f1608          LDR      r1,|L1.4588|
000be0  e1a0000d          MOV      r0,sp
000be4  ebfffffe          BL       __aeabi_memcpy4
;;;409    	stImageLocal.u32Address = PHYSICAL(&u32_wfont7[0]);
000be8  e59f0600          LDR      r0,|L1.4592|
000bec  e58d0000          STR      r0,[sp,#0]
;;;410    	vGfBuffBlitBitmapFull(&stImageLocal, &stImage_wfont[7], 0, 0);
000bf0  e3a03000          MOV      r3,#0
000bf4  e1a02003          MOV      r2,r3
000bf8  e59f15ec          LDR      r1,|L1.4588|
000bfc  e1a0000d          MOV      r0,sp
000c00  ebfffffe          BL       vGfBuffBlitBitmapFull
;;;411    	vGfListExecute();
000c04  ebfffffe          BL       vGfListExecute
;;;412    	
;;;413    	stImageLocal = stImage_wfont[8];
000c08  e3a02014          MOV      r2,#0x14
000c0c  e59f15e0          LDR      r1,|L1.4596|
000c10  e1a0000d          MOV      r0,sp
000c14  ebfffffe          BL       __aeabi_memcpy4
;;;414    	stImageLocal.u32Address = PHYSICAL(&u32_wfont8[0]);
000c18  e59f05d8          LDR      r0,|L1.4600|
000c1c  e58d0000          STR      r0,[sp,#0]
;;;415    	vGfBuffBlitBitmapFull(&stImageLocal, &stImage_wfont[8], 0, 0);
000c20  e3a03000          MOV      r3,#0
000c24  e1a02003          MOV      r2,r3
000c28  e59f15c4          LDR      r1,|L1.4596|
000c2c  e1a0000d          MOV      r0,sp
000c30  ebfffffe          BL       vGfBuffBlitBitmapFull
;;;416    	vGfListExecute();
000c34  ebfffffe          BL       vGfListExecute
;;;417    	
;;;418    	stImageLocal = stImage_wfont[9];
000c38  e3a02014          MOV      r2,#0x14
000c3c  e59f15b8          LDR      r1,|L1.4604|
000c40  e1a0000d          MOV      r0,sp
000c44  ebfffffe          BL       __aeabi_memcpy4
;;;419    	stImageLocal.u32Address = PHYSICAL(&u32_wfont9[0]);
000c48  e59f05b0          LDR      r0,|L1.4608|
000c4c  e58d0000          STR      r0,[sp,#0]
;;;420    	vGfBuffBlitBitmapFull(&stImageLocal, &stImage_wfont[9], 0, 0);
000c50  e3a03000          MOV      r3,#0
000c54  e1a02003          MOV      r2,r3
000c58  e59f159c          LDR      r1,|L1.4604|
000c5c  e1a0000d          MOV      r0,sp
000c60  ebfffffe          BL       vGfBuffBlitBitmapFull
;;;421    	vGfListExecute();
000c64  ebfffffe          BL       vGfListExecute
;;;422    	
;;;423    	stImageLocal = stImage_wfont[10];
000c68  e3a02014          MOV      r2,#0x14
000c6c  e59f1590          LDR      r1,|L1.4612|
000c70  e1a0000d          MOV      r0,sp
000c74  ebfffffe          BL       __aeabi_memcpy4
;;;424    	stImageLocal.u32Address = PHYSICAL(&u32_wfontdp[0]);
000c78  e59f0588          LDR      r0,|L1.4616|
000c7c  e58d0000          STR      r0,[sp,#0]
;;;425    	vGfBuffBlitBitmapFull(&stImageLocal, &stImage_wfont[10], 0, 0);
000c80  e3a03000          MOV      r3,#0
000c84  e1a02003          MOV      r2,r3
000c88  e59f1574          LDR      r1,|L1.4612|
000c8c  e1a0000d          MOV      r0,sp
000c90  ebfffffe          BL       vGfBuffBlitBitmapFull
;;;426    	vGfListExecute();
000c94  ebfffffe          BL       vGfListExecute
;;;427    
;;;428    	stImageLocal = stImage_wfont[11];
000c98  e3a02014          MOV      r2,#0x14
000c9c  e59f1568          LDR      r1,|L1.4620|
000ca0  e1a0000d          MOV      r0,sp
000ca4  ebfffffe          BL       __aeabi_memcpy4
;;;429    	stImageLocal.u32Address = PHYSICAL(&u32_font_wne[0]);
000ca8  e59f0560          LDR      r0,|L1.4624|
000cac  e58d0000          STR      r0,[sp,#0]
;;;430    	vGfBuffBlitBitmapFull(&stImageLocal, &stImage_wfont[11], 0, 0);
000cb0  e3a03000          MOV      r3,#0
000cb4  e1a02003          MOV      r2,r3
000cb8  e59f154c          LDR      r1,|L1.4620|
000cbc  e1a0000d          MOV      r0,sp
000cc0  ebfffffe          BL       vGfBuffBlitBitmapFull
;;;431    	vGfListExecute();
000cc4  ebfffffe          BL       vGfListExecute
;;;432    
;;;433    
;;;434    	stImageLocal = stImage_chargetime;
000cc8  e3a02014          MOV      r2,#0x14
000ccc  e59f1540          LDR      r1,|L1.4628|
000cd0  e1a0000d          MOV      r0,sp
000cd4  ebfffffe          BL       __aeabi_memcpy4
;;;435    	stImageLocal.u32Address = PHYSICAL(&u32_chargetime[0]);
000cd8  e59f0538          LDR      r0,|L1.4632|
000cdc  e58d0000          STR      r0,[sp,#0]
;;;436    	vGfBuffBlitBitmapFull(&stImageLocal, &stImage_chargetime, 0, 0);
000ce0  e3a03000          MOV      r3,#0
000ce4  e1a02003          MOV      r2,r3
000ce8  e59f1524          LDR      r1,|L1.4628|
000cec  e1a0000d          MOV      r0,sp
000cf0  ebfffffe          BL       vGfBuffBlitBitmapFull
;;;437    	vGfListExecute();
000cf4  ebfffffe          BL       vGfListExecute
;;;438    	
;;;439    	stImageLocal = stImage_hour;
000cf8  e3a02014          MOV      r2,#0x14
000cfc  e59f1518          LDR      r1,|L1.4636|
000d00  e1a0000d          MOV      r0,sp
000d04  ebfffffe          BL       __aeabi_memcpy4
;;;440    	stImageLocal.u32Address = PHYSICAL(&u32_hour[0]);
000d08  e59f0510          LDR      r0,|L1.4640|
000d0c  e58d0000          STR      r0,[sp,#0]
;;;441    	vGfBuffBlitBitmapFull(&stImageLocal, &stImage_hour, 0, 0);
000d10  e3a03000          MOV      r3,#0
000d14  e1a02003          MOV      r2,r3
000d18  e59f14fc          LDR      r1,|L1.4636|
000d1c  e1a0000d          MOV      r0,sp
000d20  ebfffffe          BL       vGfBuffBlitBitmapFull
;;;442    	vGfListExecute();
000d24  ebfffffe          BL       vGfListExecute
;;;443    	
;;;444    	stImageLocal = stImage_minute;
000d28  e3a02014          MOV      r2,#0x14
000d2c  e59f14f0          LDR      r1,|L1.4644|
000d30  e1a0000d          MOV      r0,sp
000d34  ebfffffe          BL       __aeabi_memcpy4
;;;445    	stImageLocal.u32Address = PHYSICAL(&u32_minute[0]);
000d38  e59f04e8          LDR      r0,|L1.4648|
000d3c  e58d0000          STR      r0,[sp,#0]
;;;446    	vGfBuffBlitBitmapFull(&stImageLocal, &stImage_minute, 0, 0);
000d40  e3a03000          MOV      r3,#0
000d44  e1a02003          MOV      r2,r3
000d48  e59f14d4          LDR      r1,|L1.4644|
000d4c  e1a0000d          MOV      r0,sp
000d50  ebfffffe          BL       vGfBuffBlitBitmapFull
;;;447    	vGfListExecute();
000d54  ebfffffe          BL       vGfListExecute
;;;448    
;;;449    	
;;;450    	stImageLocal = stImage_ERR[1];
000d58  e3a02014          MOV      r2,#0x14
000d5c  e59f14c8          LDR      r1,|L1.4652|
000d60  e1a0000d          MOV      r0,sp
000d64  ebfffffe          BL       __aeabi_memcpy4
;;;451    	stImageLocal.u32Address = PHYSICAL(&u32_ERR1[0]);
000d68  e59f04c0          LDR      r0,|L1.4656|
000d6c  e58d0000          STR      r0,[sp,#0]
;;;452    	vGfBuffBlitBitmapFull(&stImageLocal, &stImage_ERR[1], 0, 0);
000d70  e3a03000          MOV      r3,#0
000d74  e1a02003          MOV      r2,r3
000d78  e59f14ac          LDR      r1,|L1.4652|
000d7c  e1a0000d          MOV      r0,sp
000d80  ebfffffe          BL       vGfBuffBlitBitmapFull
;;;453    	vGfListExecute();
000d84  ebfffffe          BL       vGfListExecute
;;;454    	
;;;455    	stImageLocal = stImage_ERR[10];
000d88  e3a02014          MOV      r2,#0x14
000d8c  e59f14a0          LDR      r1,|L1.4660|
000d90  e1a0000d          MOV      r0,sp
000d94  ebfffffe          BL       __aeabi_memcpy4
;;;456    	stImageLocal.u32Address = PHYSICAL(&u32_ERR10[0]);
000d98  e59f0498          LDR      r0,|L1.4664|
000d9c  e58d0000          STR      r0,[sp,#0]
;;;457    	vGfBuffBlitBitmapFull(&stImageLocal, &stImage_ERR[10], 0, 0);
000da0  e3a03000          MOV      r3,#0
000da4  e1a02003          MOV      r2,r3
000da8  e59f1484          LDR      r1,|L1.4660|
000dac  e1a0000d          MOV      r0,sp
000db0  ebfffffe          BL       vGfBuffBlitBitmapFull
;;;458    	vGfListExecute();
000db4  ebfffffe          BL       vGfListExecute
;;;459    	
;;;460    	stImageLocal = stImage_ERR[11];
000db8  e3a02014          MOV      r2,#0x14
000dbc  e59f1478          LDR      r1,|L1.4668|
000dc0  e1a0000d          MOV      r0,sp
000dc4  ebfffffe          BL       __aeabi_memcpy4
;;;461    	stImageLocal.u32Address = PHYSICAL(&u32_ERR11[0]);
000dc8  e59f0470          LDR      r0,|L1.4672|
000dcc  e58d0000          STR      r0,[sp,#0]
;;;462    	vGfBuffBlitBitmapFull(&stImageLocal, &stImage_ERR[11], 0, 0);
000dd0  e3a03000          MOV      r3,#0
000dd4  e1a02003          MOV      r2,r3
000dd8  e59f145c          LDR      r1,|L1.4668|
000ddc  e1a0000d          MOV      r0,sp
000de0  ebfffffe          BL       vGfBuffBlitBitmapFull
;;;463    	vGfListExecute();
000de4  ebfffffe          BL       vGfListExecute
;;;464    	
;;;465    	stImageLocal = stImage_ERR[12];
000de8  e3a02014          MOV      r2,#0x14
000dec  e59f1450          LDR      r1,|L1.4676|
000df0  e1a0000d          MOV      r0,sp
000df4  ebfffffe          BL       __aeabi_memcpy4
;;;466    	stImageLocal.u32Address = PHYSICAL(&u32_ERR12[0]);
000df8  e59f0448          LDR      r0,|L1.4680|
000dfc  e58d0000          STR      r0,[sp,#0]
;;;467    	vGfBuffBlitBitmapFull(&stImageLocal, &stImage_ERR[12], 0, 0);
000e00  e3a03000          MOV      r3,#0
000e04  e1a02003          MOV      r2,r3
000e08  e59f1434          LDR      r1,|L1.4676|
000e0c  e1a0000d          MOV      r0,sp
000e10  ebfffffe          BL       vGfBuffBlitBitmapFull
;;;468    	vGfListExecute();
000e14  ebfffffe          BL       vGfListExecute
;;;469    	
;;;470    	stImageLocal = stImage_ERR[13];
000e18  e3a02014          MOV      r2,#0x14
000e1c  e59f1428          LDR      r1,|L1.4684|
000e20  e1a0000d          MOV      r0,sp
000e24  ebfffffe          BL       __aeabi_memcpy4
;;;471    	stImageLocal.u32Address = PHYSICAL(&u32_ERR13[0]);
000e28  e59f0420          LDR      r0,|L1.4688|
000e2c  e58d0000          STR      r0,[sp,#0]
;;;472    	vGfBuffBlitBitmapFull(&stImageLocal, &stImage_ERR[13], 0, 0);
000e30  e3a03000          MOV      r3,#0
000e34  e1a02003          MOV      r2,r3
000e38  e59f140c          LDR      r1,|L1.4684|
000e3c  e1a0000d          MOV      r0,sp
000e40  ebfffffe          BL       vGfBuffBlitBitmapFull
;;;473    	vGfListExecute();
000e44  ebfffffe          BL       vGfListExecute
;;;474    	
;;;475    	stImageLocal = stImage_ERR[14];
000e48  e3a02014          MOV      r2,#0x14
000e4c  e59f1400          LDR      r1,|L1.4692|
000e50  e1a0000d          MOV      r0,sp
000e54  ebfffffe          BL       __aeabi_memcpy4
;;;476    	stImageLocal.u32Address = PHYSICAL(&u32_ERR14[0]);
000e58  e59f03f8          LDR      r0,|L1.4696|
000e5c  e58d0000          STR      r0,[sp,#0]
;;;477    	vGfBuffBlitBitmapFull(&stImageLocal, &stImage_ERR[14], 0, 0);
000e60  e3a03000          MOV      r3,#0
000e64  e1a02003          MOV      r2,r3
000e68  e59f13e4          LDR      r1,|L1.4692|
000e6c  e1a0000d          MOV      r0,sp
000e70  ebfffffe          BL       vGfBuffBlitBitmapFull
;;;478    	vGfListExecute();
000e74  ebfffffe          BL       vGfListExecute
;;;479    	
;;;480    	stImageLocal = stImage_ERR[15];
000e78  e3a02014          MOV      r2,#0x14
000e7c  e59f13d8          LDR      r1,|L1.4700|
000e80  e1a0000d          MOV      r0,sp
000e84  ebfffffe          BL       __aeabi_memcpy4
;;;481    	stImageLocal.u32Address = PHYSICAL(&u32_ERR15[0]);
000e88  e59f03d0          LDR      r0,|L1.4704|
000e8c  e58d0000          STR      r0,[sp,#0]
;;;482    	vGfBuffBlitBitmapFull(&stImageLocal, &stImage_ERR[15], 0, 0);
000e90  e3a03000          MOV      r3,#0
000e94  e1a02003          MOV      r2,r3
000e98  e59f13bc          LDR      r1,|L1.4700|
000e9c  e1a0000d          MOV      r0,sp
000ea0  ebfffffe          BL       vGfBuffBlitBitmapFull
;;;483    	vGfListExecute();
000ea4  ebfffffe          BL       vGfListExecute
;;;484    	
;;;485    	stImageLocal = stImage_ERR[16];
000ea8  e3a02014          MOV      r2,#0x14
000eac  e59f13b0          LDR      r1,|L1.4708|
000eb0  e1a0000d          MOV      r0,sp
000eb4  ebfffffe          BL       __aeabi_memcpy4
;;;486    	stImageLocal.u32Address = PHYSICAL(&u32_ERR16[0]);
000eb8  e59f03a8          LDR      r0,|L1.4712|
000ebc  e58d0000          STR      r0,[sp,#0]
;;;487    	vGfBuffBlitBitmapFull(&stImageLocal, &stImage_ERR[16], 0, 0);
000ec0  e3a03000          MOV      r3,#0
000ec4  e1a02003          MOV      r2,r3
000ec8  e59f1394          LDR      r1,|L1.4708|
000ecc  e1a0000d          MOV      r0,sp
000ed0  ebfffffe          BL       vGfBuffBlitBitmapFull
;;;488    	vGfListExecute();
000ed4  ebfffffe          BL       vGfListExecute
;;;489    	
;;;490    	stImageLocal = stImage_ERR[17];
000ed8  e3a02014          MOV      r2,#0x14
000edc  e59f1388          LDR      r1,|L1.4716|
000ee0  e1a0000d          MOV      r0,sp
000ee4  ebfffffe          BL       __aeabi_memcpy4
;;;491    	stImageLocal.u32Address = PHYSICAL(&u32_ERR17[0]);
000ee8  e59f0380          LDR      r0,|L1.4720|
000eec  e58d0000          STR      r0,[sp,#0]
;;;492    	vGfBuffBlitBitmapFull(&stImageLocal, &stImage_ERR[17], 0, 0);
000ef0  e3a03000          MOV      r3,#0
000ef4  e1a02003          MOV      r2,r3
000ef8  e59f136c          LDR      r1,|L1.4716|
000efc  e1a0000d          MOV      r0,sp
000f00  ebfffffe          BL       vGfBuffBlitBitmapFull
;;;493    	vGfListExecute();
000f04  ebfffffe          BL       vGfListExecute
;;;494    	
;;;495    	stImageLocal = stImage_ERR[18];
000f08  e3a02014          MOV      r2,#0x14
000f0c  e59f1360          LDR      r1,|L1.4724|
000f10  e1a0000d          MOV      r0,sp
000f14  ebfffffe          BL       __aeabi_memcpy4
;;;496    	stImageLocal.u32Address = PHYSICAL(&u32_ERR18[0]);
000f18  e59f0358          LDR      r0,|L1.4728|
000f1c  e58d0000          STR      r0,[sp,#0]
;;;497    	vGfBuffBlitBitmapFull(&stImageLocal, &stImage_ERR[18], 0, 0);
000f20  e3a03000          MOV      r3,#0
000f24  e1a02003          MOV      r2,r3
000f28  e59f1344          LDR      r1,|L1.4724|
000f2c  e1a0000d          MOV      r0,sp
000f30  ebfffffe          BL       vGfBuffBlitBitmapFull
;;;498    	vGfListExecute();
000f34  ebfffffe          BL       vGfListExecute
;;;499    	
;;;500    	stImageLocal = stImage_ERR[19];
000f38  e3a02014          MOV      r2,#0x14
000f3c  e59f1338          LDR      r1,|L1.4732|
000f40  e1a0000d          MOV      r0,sp
000f44  ebfffffe          BL       __aeabi_memcpy4
;;;501    	stImageLocal.u32Address = PHYSICAL(&u32_ERR19[0]);
000f48  e59f0330          LDR      r0,|L1.4736|
000f4c  e58d0000          STR      r0,[sp,#0]
;;;502    	vGfBuffBlitBitmapFull(&stImageLocal, &stImage_ERR[19], 0, 0);
000f50  e3a03000          MOV      r3,#0
000f54  e1a02003          MOV      r2,r3
000f58  e59f131c          LDR      r1,|L1.4732|
000f5c  e1a0000d          MOV      r0,sp
000f60  ebfffffe          BL       vGfBuffBlitBitmapFull
;;;503    	vGfListExecute();
000f64  ebfffffe          BL       vGfListExecute
;;;504    	
;;;505    	stImageLocal = stImage_ERR[2];
000f68  e3a02014          MOV      r2,#0x14
000f6c  e59f1310          LDR      r1,|L1.4740|
000f70  e1a0000d          MOV      r0,sp
000f74  ebfffffe          BL       __aeabi_memcpy4
;;;506    	stImageLocal.u32Address = PHYSICAL(&u32_ERR2[0]);
000f78  e59f0308          LDR      r0,|L1.4744|
000f7c  e58d0000          STR      r0,[sp,#0]
;;;507    	vGfBuffBlitBitmapFull(&stImageLocal, &stImage_ERR[2], 0, 0);
000f80  e3a03000          MOV      r3,#0
000f84  e1a02003          MOV      r2,r3
000f88  e59f12f4          LDR      r1,|L1.4740|
000f8c  e1a0000d          MOV      r0,sp
000f90  ebfffffe          BL       vGfBuffBlitBitmapFull
;;;508    	vGfListExecute();
000f94  ebfffffe          BL       vGfListExecute
;;;509    	
;;;510    	stImageLocal = stImage_ERR[3];
000f98  e3a02014          MOV      r2,#0x14
000f9c  e59f12e8          LDR      r1,|L1.4748|
000fa0  e1a0000d          MOV      r0,sp
000fa4  ebfffffe          BL       __aeabi_memcpy4
;;;511    	stImageLocal.u32Address = PHYSICAL(&u32_ERR3[0]);
000fa8  e59f02e0          LDR      r0,|L1.4752|
000fac  ea0000b8          B        |L1.4756|
                  |L1.4016|
                          DCD      stImage_LedOnLeft
                  |L1.4020|
                          DCD      u32_LedOnLeft
                  |L1.4024|
                          DCD      stImage_LedOnRight
                  |L1.4028|
                          DCD      u32_LedOnRight
                  |L1.4032|
                          DCD      stImage_needle_1
                  |L1.4036|
                          DCD      u32_needle_1
                  |L1.4040|
                          DCD      stImage_FirstLogo
                  |L1.4044|
                          DCD      u32_FirstLogo
                  |L1.4048|
                          DCD      u32_MainShow_RAM
                  |L1.4052|
                          DCD      u32_MainShow+0x16f2c
                  |L1.4056|
                          DCD      u32_MainShow
                  |L1.4060|
                          DCD      u32_digifont_0_RLE_RAM
                  |L1.4064|
                          DCD      u32_digifont_0_RLE+0x284
                  |L1.4068|
                          DCD      u32_digifont_1_RLE_RAM
                  |L1.4072|
                          DCD      u32_digifont_1_RLE+0x144
                  |L1.4076|
                          DCD      u32_digifont_2_RLE_RAM
                  |L1.4080|
                          DCD      u32_digifont_2_RLE+0x1d8
                  |L1.4084|
                          DCD      u32_digifont_3_RLE_RAM
                  |L1.4088|
                          DCD      u32_digifont_3_RLE+0x1e0
                  |L1.4092|
                          DCD      u32_digifont_4_RLE_RAM
                  |L1.4096|
                          DCD      u32_digifont_4_RLE+0x204
                  |L1.4100|
                          DCD      u32_digifont_5_RLE_RAM
                  |L1.4104|
                          DCD      u32_digifont_5_RLE+0x1e0
                  |L1.4108|
                          DCD      u32_digifont_6_RLE_RAM
                  |L1.4112|
                          DCD      u32_digifont_6_RLE+0x23c
                  |L1.4116|
                          DCD      u32_digifont_7_RLE_RAM
                  |L1.4120|
                          DCD      u32_digifont_7_RLE+0x178
                  |L1.4124|
                          DCD      u32_digifont_8_RLE_RAM
                  |L1.4128|
                          DCD      u32_digifont_8_RLE+0x298
                  |L1.4132|
                          DCD      u32_digifont_9_RLE_RAM
                  |L1.4136|
                          DCD      u32_digifont_9_RLE+0x240
                  |L1.4140|
                          DCD      u32_digifont_dp_RLE_RAM
                  |L1.4144|
                          DCD      u32_digifont_dp_RLE+0xa4
                  |L1.4148|
                          DCD      stImage_AirBag_ON
                  |L1.4152|
                          DCD      u32_AirBag_ON
                  |L1.4156|
                          DCD      stImage_ASB_ON
                  |L1.4160|
                          DCD      u32_ASB_ON
                  |L1.4164|
                          DCD      stImage_A_FogLamp_ON
                  |L1.4168|
                          DCD      u32_A_FogLamp_ON
                  |L1.4172|
                          DCD      stImage_BrakeFluid_ON
                  |L1.4176|
                          DCD      u32_BrakeFluid_ON
                  |L1.4180|
                          DCD      stImage_CarLock_ON
                  |L1.4184|
                          DCD      u32_CarLock_ON
                  |L1.4188|
                          DCD      stImage_Charge_ON
                  |L1.4192|
                          DCD      u32_Charge_ON
                  |L1.4196|
                          DCD      stImage_ChargPlug_ON
                  |L1.4200|
                          DCD      u32_ChargPlug_ON
                  |L1.4204|
                          DCD      stImage_DCDC_ON
                  |L1.4208|
                          DCD      u32_DCDC_ON
                  |L1.4212|
                          DCD      stImage_DippedHeadlight_ON
                  |L1.4216|
                          DCD      u32_DippedHeadlight_ON
                  |L1.4220|
                          DCD      stImage_Door_ON
                  |L1.4224|
                          DCD      u32_Door_ON
                  |L1.4228|
                          DCD      stImage_EPS_ON
                  |L1.4232|
                          DCD      u32_EPS_ON
                  |L1.4236|
                          DCD      stImage_F_FogLamp_ON
                  |L1.4240|
                          DCD      u32_F_FogLamp_ON
                  |L1.4244|
                          DCD      stImage_HighBeam_ON
                  |L1.4248|
                          DCD      u32_HighBeam_ON
                  |L1.4252|
                          DCD      stImage_InsulationErr_ON
                  |L1.4256|
                          DCD      u32_InsulationErr_ON
                  |L1.4260|
                          DCD      stImage_MotorErr_ON
                  |L1.4264|
                          DCD      u32_MotorErr_ON
                  |L1.4268|
                          DCD      stImage_MotorOT_ON
                  |L1.4272|
                          DCD      u32_MotorOT_ON
                  |L1.4276|
                          DCD      stImage_MotorSpeed_ON
                  |L1.4280|
                          DCD      u32_MotorSpeed_ON
                  |L1.4284|
                          DCD      stImage_Parking_ON
                  |L1.4288|
                          DCD      u32_Parking_ON
                  |L1.4292|
                          DCD      stImage_PowerBatteryCut_ON
                  |L1.4296|
                          DCD      u32_PowerBatteryCut_ON
                  |L1.4300|
                          DCD      stImage_PowerBattery_ON
                  |L1.4304|
                          DCD      u32_PowerBattery_ON
                  |L1.4308|
                          DCD      stImage_SafetyBelt_ON
                  |L1.4312|
                          DCD      u32_SafetyBelt_ON
                  |L1.4316|
                          DCD      stImage_SmallLight_ON
                  |L1.4320|
                          DCD      u32_SmallLight_ON
                  |L1.4324|
                          DCD      stImage_SOC_ON
                  |L1.4328|
                          DCD      u32_SOC_ON
                  |L1.4332|
                          DCD      stImage_SystemErr_ON
                  |L1.4336|
                          DCD      u32_SystemErr_ON
                  |L1.4340|
                          DCD      stImage_BatDownInval
                  |L1.4344|
                          DCD      u32_BatDownInval
                  |L1.4348|
                          DCD      stImage_BatDownVal
                  |L1.4352|
                          DCD      u32_BatDownVal
                  |L1.4356|
                          DCD      stImage_BatInval
                  |L1.4360|
                          DCD      u32_BatInval
                  |L1.4364|
                          DCD      stImage_BatUp
                  |L1.4368|
                          DCD      u32_BatUp
                  |L1.4372|
                          DCD      stImage_BatVal
                  |L1.4376|
                          DCD      u32_BatVal
                  |L1.4380|
                          DCD      stImage_ProInval
                  |L1.4384|
                          DCD      u32_ProInval
                  |L1.4388|
                          DCD      stImage_ProLeft
                  |L1.4392|
                          DCD      u32_ProLeft
                  |L1.4396|
                          DCD      stImage_ProRight
                  |L1.4400|
                          DCD      u32_ProRight
                  |L1.4404|
                          DCD      stImage_ProVal
                  |L1.4408|
                          DCD      u32_ProVal
                  |L1.4412|
                          DCD      stImage_font
                  |L1.4416|
                          DCD      u32_font0
                  |L1.4420|
                          DCD      stImage_font+0x14
                  |L1.4424|
                          DCD      u32_font1
                  |L1.4428|
                          DCD      stImage_font+0x28
                  |L1.4432|
                          DCD      u32_font2
                  |L1.4436|
                          DCD      stImage_font+0x3c
                  |L1.4440|
                          DCD      u32_font3
                  |L1.4444|
                          DCD      stImage_font+0x50
                  |L1.4448|
                          DCD      u32_font4
                  |L1.4452|
                          DCD      stImage_font+0x64
                  |L1.4456|
                          DCD      u32_font5
                  |L1.4460|
                          DCD      stImage_font+0x78
                  |L1.4464|
                          DCD      u32_font6
                  |L1.4468|
                          DCD      stImage_font+0x8c
                  |L1.4472|
                          DCD      u32_font7
                  |L1.4476|
                          DCD      stImage_font+0xa0
                  |L1.4480|
                          DCD      u32_font8
                  |L1.4484|
                          DCD      stImage_font+0xb4
                  |L1.4488|
                          DCD      u32_font9
                  |L1.4492|
                          DCD      stImage_font+0xc8
                  |L1.4496|
                          DCD      u32_fontdp
                  |L1.4500|
                          DCD      stImage_font+0xdc
                  |L1.4504|
                          DCD      u32_font_ne
                  |L1.4508|
                          DCD      stImage_km
                  |L1.4512|
                          DCD      u32_km
                  |L1.4516|
                          DCD      stImage_totaldistance
                  |L1.4520|
                          DCD      u32_totaldistance
                  |L1.4524|
                          DCD      stImage_tripdistance
                  |L1.4528|
                          DCD      u32_tripdistance
                  |L1.4532|
                          DCD      stImage_wfont
                  |L1.4536|
                          DCD      u32_wfont0
                  |L1.4540|
                          DCD      stImage_wfont+0x14
                  |L1.4544|
                          DCD      u32_wfont1
                  |L1.4548|
                          DCD      stImage_wfont+0x28
                  |L1.4552|
                          DCD      u32_wfont2
                  |L1.4556|
                          DCD      stImage_wfont+0x3c
                  |L1.4560|
                          DCD      u32_wfont3
                  |L1.4564|
                          DCD      stImage_wfont+0x50
                  |L1.4568|
                          DCD      u32_wfont4
                  |L1.4572|
                          DCD      stImage_wfont+0x64
                  |L1.4576|
                          DCD      u32_wfont5
                  |L1.4580|
                          DCD      stImage_wfont+0x78
                  |L1.4584|
                          DCD      u32_wfont6
                  |L1.4588|
                          DCD      stImage_wfont+0x8c
                  |L1.4592|
                          DCD      u32_wfont7
                  |L1.4596|
                          DCD      stImage_wfont+0xa0
                  |L1.4600|
                          DCD      u32_wfont8
                  |L1.4604|
                          DCD      stImage_wfont+0xb4
                  |L1.4608|
                          DCD      u32_wfont9
                  |L1.4612|
                          DCD      stImage_wfont+0xc8
                  |L1.4616|
                          DCD      u32_wfontdp
                  |L1.4620|
                          DCD      stImage_wfont+0xdc
                  |L1.4624|
                          DCD      u32_font_wne
                  |L1.4628|
                          DCD      stImage_chargetime
                  |L1.4632|
                          DCD      u32_chargetime
                  |L1.4636|
                          DCD      stImage_hour
                  |L1.4640|
                          DCD      u32_hour
                  |L1.4644|
                          DCD      stImage_minute
                  |L1.4648|
                          DCD      u32_minute
                  |L1.4652|
                          DCD      stImage_ERR+0x14
                  |L1.4656|
                          DCD      u32_ERR1
                  |L1.4660|
                          DCD      stImage_ERR+0xc8
                  |L1.4664|
                          DCD      u32_ERR10
                  |L1.4668|
                          DCD      stImage_ERR+0xdc
                  |L1.4672|
                          DCD      u32_ERR11
                  |L1.4676|
                          DCD      stImage_ERR+0xf0
                  |L1.4680|
                          DCD      u32_ERR12
                  |L1.4684|
                          DCD      stImage_ERR+0x104
                  |L1.4688|
                          DCD      u32_ERR13
                  |L1.4692|
                          DCD      stImage_ERR+0x118
                  |L1.4696|
                          DCD      u32_ERR14
                  |L1.4700|
                          DCD      stImage_ERR+0x12c
                  |L1.4704|
                          DCD      u32_ERR15
                  |L1.4708|
                          DCD      stImage_ERR+0x140
                  |L1.4712|
                          DCD      u32_ERR16
                  |L1.4716|
                          DCD      stImage_ERR+0x154
                  |L1.4720|
                          DCD      u32_ERR17
                  |L1.4724|
                          DCD      stImage_ERR+0x168
                  |L1.4728|
                          DCD      u32_ERR18
                  |L1.4732|
                          DCD      stImage_ERR+0x17c
                  |L1.4736|
                          DCD      u32_ERR19
                  |L1.4740|
                          DCD      stImage_ERR+0x28
                  |L1.4744|
                          DCD      u32_ERR2
                  |L1.4748|
                          DCD      stImage_ERR+0x3c
                  |L1.4752|
                          DCD      u32_ERR3
                  |L1.4756|
001294  e58d0000          STR      r0,[sp,#0]
;;;512    	vGfBuffBlitBitmapFull(&stImageLocal, &stImage_ERR[3], 0, 0);
001298  e3a03000          MOV      r3,#0
00129c  e1a02003          MOV      r2,r3
0012a0  e51f101c          LDR      r1,|L1.4748|
0012a4  e1a0000d          MOV      r0,sp
0012a8  ebfffffe          BL       vGfBuffBlitBitmapFull
;;;513    	vGfListExecute();
0012ac  ebfffffe          BL       vGfListExecute
;;;514    	
;;;515    	stImageLocal = stImage_ERR[4];
0012b0  e3a02014          MOV      r2,#0x14
0012b4  e59f1450          LDR      r1,|L1.5900|
0012b8  e1a0000d          MOV      r0,sp
0012bc  ebfffffe          BL       __aeabi_memcpy4
;;;516    	stImageLocal.u32Address = PHYSICAL(&u32_ERR4[0]);
0012c0  e59f0448          LDR      r0,|L1.5904|
0012c4  e58d0000          STR      r0,[sp,#0]
;;;517    	vGfBuffBlitBitmapFull(&stImageLocal, &stImage_ERR[4], 0, 0);
0012c8  e3a03000          MOV      r3,#0
0012cc  e1a02003          MOV      r2,r3
0012d0  e59f1434          LDR      r1,|L1.5900|
0012d4  e1a0000d          MOV      r0,sp
0012d8  ebfffffe          BL       vGfBuffBlitBitmapFull
;;;518    	vGfListExecute();
0012dc  ebfffffe          BL       vGfListExecute
;;;519    	
;;;520    	stImageLocal = stImage_ERR[5];
0012e0  e3a02014          MOV      r2,#0x14
0012e4  e59f1428          LDR      r1,|L1.5908|
0012e8  e1a0000d          MOV      r0,sp
0012ec  ebfffffe          BL       __aeabi_memcpy4
;;;521    	stImageLocal.u32Address = PHYSICAL(&u32_ERR5[0]);
0012f0  e59f0420          LDR      r0,|L1.5912|
0012f4  e58d0000          STR      r0,[sp,#0]
;;;522    	vGfBuffBlitBitmapFull(&stImageLocal, &stImage_ERR[5], 0, 0);
0012f8  e3a03000          MOV      r3,#0
0012fc  e1a02003          MOV      r2,r3
001300  e59f140c          LDR      r1,|L1.5908|
001304  e1a0000d          MOV      r0,sp
001308  ebfffffe          BL       vGfBuffBlitBitmapFull
;;;523    	vGfListExecute();
00130c  ebfffffe          BL       vGfListExecute
;;;524    	
;;;525    	stImageLocal = stImage_ERR[6];
001310  e3a02014          MOV      r2,#0x14
001314  e59f1400          LDR      r1,|L1.5916|
001318  e1a0000d          MOV      r0,sp
00131c  ebfffffe          BL       __aeabi_memcpy4
;;;526    	stImageLocal.u32Address = PHYSICAL(&u32_ERR6[0]);
001320  e59f03f8          LDR      r0,|L1.5920|
001324  e58d0000          STR      r0,[sp,#0]
;;;527    	vGfBuffBlitBitmapFull(&stImageLocal, &stImage_ERR[6], 0, 0);
001328  e3a03000          MOV      r3,#0
00132c  e1a02003          MOV      r2,r3
001330  e59f13e4          LDR      r1,|L1.5916|
001334  e1a0000d          MOV      r0,sp
001338  ebfffffe          BL       vGfBuffBlitBitmapFull
;;;528    	vGfListExecute();
00133c  ebfffffe          BL       vGfListExecute
;;;529    	
;;;530    	stImageLocal = stImage_ERR[7];
001340  e3a02014          MOV      r2,#0x14
001344  e59f13d8          LDR      r1,|L1.5924|
001348  e1a0000d          MOV      r0,sp
00134c  ebfffffe          BL       __aeabi_memcpy4
;;;531    	stImageLocal.u32Address = PHYSICAL(&u32_ERR7[0]);
001350  e59f03d0          LDR      r0,|L1.5928|
001354  e58d0000          STR      r0,[sp,#0]
;;;532    	vGfBuffBlitBitmapFull(&stImageLocal, &stImage_ERR[7], 0, 0);
001358  e3a03000          MOV      r3,#0
00135c  e1a02003          MOV      r2,r3
001360  e59f13bc          LDR      r1,|L1.5924|
001364  e1a0000d          MOV      r0,sp
001368  ebfffffe          BL       vGfBuffBlitBitmapFull
;;;533    	vGfListExecute();
00136c  ebfffffe          BL       vGfListExecute
;;;534    	
;;;535    	stImageLocal = stImage_ERR[8];
001370  e3a02014          MOV      r2,#0x14
001374  e59f13b0          LDR      r1,|L1.5932|
001378  e1a0000d          MOV      r0,sp
00137c  ebfffffe          BL       __aeabi_memcpy4
;;;536    	stImageLocal.u32Address = PHYSICAL(&u32_ERR8[0]);
001380  e59f03a8          LDR      r0,|L1.5936|
001384  e58d0000          STR      r0,[sp,#0]
;;;537    	vGfBuffBlitBitmapFull(&stImageLocal, &stImage_ERR[8], 0, 0);
001388  e3a03000          MOV      r3,#0
00138c  e1a02003          MOV      r2,r3
001390  e59f1394          LDR      r1,|L1.5932|
001394  e1a0000d          MOV      r0,sp
001398  ebfffffe          BL       vGfBuffBlitBitmapFull
;;;538    	vGfListExecute();
00139c  ebfffffe          BL       vGfListExecute
;;;539    	
;;;540    	stImageLocal = stImage_ERR[9];
0013a0  e3a02014          MOV      r2,#0x14
0013a4  e59f1388          LDR      r1,|L1.5940|
0013a8  e1a0000d          MOV      r0,sp
0013ac  ebfffffe          BL       __aeabi_memcpy4
;;;541    	stImageLocal.u32Address = PHYSICAL(&u32_ERR9[0]);
0013b0  e59f0380          LDR      r0,|L1.5944|
0013b4  e58d0000          STR      r0,[sp,#0]
;;;542    	vGfBuffBlitBitmapFull(&stImageLocal, &stImage_ERR[9], 0, 0);
0013b8  e3a03000          MOV      r3,#0
0013bc  e1a02003          MOV      r2,r3
0013c0  e59f136c          LDR      r1,|L1.5940|
0013c4  e1a0000d          MOV      r0,sp
0013c8  ebfffffe          BL       vGfBuffBlitBitmapFull
;;;543    	vGfListExecute();
0013cc  ebfffffe          BL       vGfListExecute
;;;544    	
;;;545    	stImageLocal = stImage_fonta;
0013d0  e3a02014          MOV      r2,#0x14
0013d4  e59f1360          LDR      r1,|L1.5948|
0013d8  e1a0000d          MOV      r0,sp
0013dc  ebfffffe          BL       __aeabi_memcpy4
;;;546    	stImageLocal.u32Address = PHYSICAL(&u32_fonta[0]);
0013e0  e59f0358          LDR      r0,|L1.5952|
0013e4  e58d0000          STR      r0,[sp,#0]
;;;547    	vGfBuffBlitBitmapFull(&stImageLocal, &stImage_fonta, 0, 0);
0013e8  e3a03000          MOV      r3,#0
0013ec  e1a02003          MOV      r2,r3
0013f0  e59f1344          LDR      r1,|L1.5948|
0013f4  e1a0000d          MOV      r0,sp
0013f8  ebfffffe          BL       vGfBuffBlitBitmapFull
;;;548    	vGfListExecute();
0013fc  ebfffffe          BL       vGfListExecute
;;;549    	
;;;550    	stImageLocal = stImage_fonte;
001400  e3a02014          MOV      r2,#0x14
001404  e59f1338          LDR      r1,|L1.5956|
001408  e1a0000d          MOV      r0,sp
00140c  ebfffffe          BL       __aeabi_memcpy4
;;;551    	stImageLocal.u32Address = PHYSICAL(&u32_fonte[0]);
001410  e59f0330          LDR      r0,|L1.5960|
001414  e58d0000          STR      r0,[sp,#0]
;;;552    	vGfBuffBlitBitmapFull(&stImageLocal, &stImage_fonte, 0, 0);
001418  e3a03000          MOV      r3,#0
00141c  e1a02003          MOV      r2,r3
001420  e59f131c          LDR      r1,|L1.5956|
001424  e1a0000d          MOV      r0,sp
001428  ebfffffe          BL       vGfBuffBlitBitmapFull
;;;553    	vGfListExecute();
00142c  ebfffffe          BL       vGfListExecute
;;;554    	
;;;555    	stImageLocal = stImage_fontf;
001430  e3a02014          MOV      r2,#0x14
001434  e59f1310          LDR      r1,|L1.5964|
001438  e1a0000d          MOV      r0,sp
00143c  ebfffffe          BL       __aeabi_memcpy4
;;;556    	stImageLocal.u32Address = PHYSICAL(&u32_fontf[0]);
001440  e59f0308          LDR      r0,|L1.5968|
001444  e58d0000          STR      r0,[sp,#0]
;;;557    	vGfBuffBlitBitmapFull(&stImageLocal, &stImage_fontf, 0, 0);
001448  e3a03000          MOV      r3,#0
00144c  e1a02003          MOV      r2,r3
001450  e59f12f4          LDR      r1,|L1.5964|
001454  e1a0000d          MOV      r0,sp
001458  ebfffffe          BL       vGfBuffBlitBitmapFull
;;;558    	vGfListExecute();
00145c  ebfffffe          BL       vGfListExecute
;;;559    	
;;;560    	stImageLocal = stImage_fontsoc;
001460  e3a02014          MOV      r2,#0x14
001464  e59f12e8          LDR      r1,|L1.5972|
001468  e1a0000d          MOV      r0,sp
00146c  ebfffffe          BL       __aeabi_memcpy4
;;;561    	stImageLocal.u32Address = PHYSICAL(&u32_fontsoc[0]);
001470  e59f02e0          LDR      r0,|L1.5976|
001474  e58d0000          STR      r0,[sp,#0]
;;;562    	vGfBuffBlitBitmapFull(&stImageLocal, &stImage_fontsoc, 0, 0);
001478  e3a03000          MOV      r3,#0
00147c  e1a02003          MOV      r2,r3
001480  e59f12cc          LDR      r1,|L1.5972|
001484  e1a0000d          MOV      r0,sp
001488  ebfffffe          BL       vGfBuffBlitBitmapFull
;;;563    	vGfListExecute();
00148c  ebfffffe          BL       vGfListExecute
;;;564    	
;;;565    	stImageLocal = stImage_fontv;
001490  e3a02014          MOV      r2,#0x14
001494  e59f12c0          LDR      r1,|L1.5980|
001498  e1a0000d          MOV      r0,sp
00149c  ebfffffe          BL       __aeabi_memcpy4
;;;566    	stImageLocal.u32Address = PHYSICAL(&u32_fontv[0]);
0014a0  e59f02b8          LDR      r0,|L1.5984|
0014a4  e58d0000          STR      r0,[sp,#0]
;;;567    	vGfBuffBlitBitmapFull(&stImageLocal, &stImage_fontv, 0, 0);
0014a8  e3a03000          MOV      r3,#0
0014ac  e1a02003          MOV      r2,r3
0014b0  e59f12a4          LDR      r1,|L1.5980|
0014b4  e1a0000d          MOV      r0,sp
0014b8  ebfffffe          BL       vGfBuffBlitBitmapFull
;;;568    	vGfListExecute();
0014bc  ebfffffe          BL       vGfListExecute
;;;569    	
;;;570    	
;;;571    	
;;;572    	stImageLocal = stImage_LEV[3];
0014c0  e3a02014          MOV      r2,#0x14
0014c4  e59f1298          LDR      r1,|L1.5988|
0014c8  e1a0000d          MOV      r0,sp
0014cc  ebfffffe          BL       __aeabi_memcpy4
;;;573    	stImageLocal.u32Address = PHYSICAL(&u32_LEV_D[0]);
0014d0  e59f0290          LDR      r0,|L1.5992|
0014d4  e58d0000          STR      r0,[sp,#0]
;;;574    	vGfBuffBlitBitmapFull(&stImageLocal, &stImage_LEV[3], 0, 0);
0014d8  e3a03000          MOV      r3,#0
0014dc  e1a02003          MOV      r2,r3
0014e0  e59f127c          LDR      r1,|L1.5988|
0014e4  e1a0000d          MOV      r0,sp
0014e8  ebfffffe          BL       vGfBuffBlitBitmapFull
;;;575    	vGfListExecute();
0014ec  ebfffffe          BL       vGfListExecute
;;;576    	
;;;577    	stImageLocal = stImage_LEV[2];
0014f0  e3a02014          MOV      r2,#0x14
0014f4  e59f1270          LDR      r1,|L1.5996|
0014f8  e1a0000d          MOV      r0,sp
0014fc  ebfffffe          BL       __aeabi_memcpy4
;;;578    	stImageLocal.u32Address = PHYSICAL(&u32_LEV_N[0]);
001500  e59f0268          LDR      r0,|L1.6000|
001504  e58d0000          STR      r0,[sp,#0]
;;;579    	vGfBuffBlitBitmapFull(&stImageLocal, &stImage_LEV[2], 0, 0);
001508  e3a03000          MOV      r3,#0
00150c  e1a02003          MOV      r2,r3
001510  e59f1254          LDR      r1,|L1.5996|
001514  e1a0000d          MOV      r0,sp
001518  ebfffffe          BL       vGfBuffBlitBitmapFull
;;;580    	vGfListExecute();
00151c  ebfffffe          BL       vGfListExecute
;;;581    	
;;;582    	stImageLocal = stImage_LEV[0];
001520  e3a02014          MOV      r2,#0x14
001524  e59f1248          LDR      r1,|L1.6004|
001528  e1a0000d          MOV      r0,sp
00152c  ebfffffe          BL       __aeabi_memcpy4
;;;583    	stImageLocal.u32Address = PHYSICAL(&u32_LEV_P[0]);
001530  e59f0240          LDR      r0,|L1.6008|
001534  e58d0000          STR      r0,[sp,#0]
;;;584    	vGfBuffBlitBitmapFull(&stImageLocal, &stImage_LEV[0], 0, 0);
001538  e3a03000          MOV      r3,#0
00153c  e1a02003          MOV      r2,r3
001540  e59f122c          LDR      r1,|L1.6004|
001544  e1a0000d          MOV      r0,sp
001548  ebfffffe          BL       vGfBuffBlitBitmapFull
;;;585    	vGfListExecute();
00154c  ebfffffe          BL       vGfListExecute
;;;586    	
;;;587    	stImageLocal = stImage_LEV[1];
001550  e3a02014          MOV      r2,#0x14
001554  e59f1220          LDR      r1,|L1.6012|
001558  e1a0000d          MOV      r0,sp
00155c  ebfffffe          BL       __aeabi_memcpy4
;;;588    	stImageLocal.u32Address = PHYSICAL(&u32_LEV_R[0]);
001560  e59f0218          LDR      r0,|L1.6016|
001564  e58d0000          STR      r0,[sp,#0]
;;;589    	vGfBuffBlitBitmapFull(&stImageLocal, &stImage_LEV[1], 0, 0);
001568  e3a03000          MOV      r3,#0
00156c  e1a02003          MOV      r2,r3
001570  e59f1204          LDR      r1,|L1.6012|
001574  e1a0000d          MOV      r0,sp
001578  ebfffffe          BL       vGfBuffBlitBitmapFull
;;;590    	vGfListExecute();
00157c  ebfffffe          BL       vGfListExecute
;;;591    	
;;;592    	stImageLocal = stImage_LEV[4];
001580  e3a02014          MOV      r2,#0x14
001584  e59f11f8          LDR      r1,|L1.6020|
001588  e1a0000d          MOV      r0,sp
00158c  ebfffffe          BL       __aeabi_memcpy4
;;;593    	stImageLocal.u32Address = PHYSICAL(&u32_LEV_S[0]);
001590  e59f01f0          LDR      r0,|L1.6024|
001594  e58d0000          STR      r0,[sp,#0]
;;;594    	vGfBuffBlitBitmapFull(&stImageLocal, &stImage_LEV[4], 0, 0);
001598  e3a03000          MOV      r3,#0
00159c  e1a02003          MOV      r2,r3
0015a0  e59f11dc          LDR      r1,|L1.6020|
0015a4  e1a0000d          MOV      r0,sp
0015a8  ebfffffe          BL       vGfBuffBlitBitmapFull
;;;595    	vGfListExecute();
0015ac  ebfffffe          BL       vGfListExecute
;;;596    	
;;;597    	
;;;598    	stImageLocal = stImage_ready_on;
0015b0  e3a02014          MOV      r2,#0x14
0015b4  e59f11d0          LDR      r1,|L1.6028|
0015b8  e1a0000d          MOV      r0,sp
0015bc  ebfffffe          BL       __aeabi_memcpy4
;;;599    	stImageLocal.u32Address = PHYSICAL(&u32_ready_on[0]);
0015c0  e59f01c8          LDR      r0,|L1.6032|
0015c4  e58d0000          STR      r0,[sp,#0]
;;;600    	vGfBuffBlitBitmapFull(&stImageLocal, &stImage_ready_on, 0, 0);
0015c8  e3a03000          MOV      r3,#0
0015cc  e1a02003          MOV      r2,r3
0015d0  e59f11b4          LDR      r1,|L1.6028|
0015d4  e1a0000d          MOV      r0,sp
0015d8  ebfffffe          BL       vGfBuffBlitBitmapFull
;;;601    	vGfListExecute();
0015dc  ebfffffe          BL       vGfListExecute
;;;602    	
;;;603    	
;;;604    	stImageLocal = stImage_needleA;
0015e0  e3a02014          MOV      r2,#0x14
0015e4  e59f11a8          LDR      r1,|L1.6036|
0015e8  e1a0000d          MOV      r0,sp
0015ec  ebfffffe          BL       __aeabi_memcpy4
;;;605    	stImageLocal.u32Address = PHYSICAL(&u32_needleA[0]);
0015f0  e59f01a0          LDR      r0,|L1.6040|
0015f4  e58d0000          STR      r0,[sp,#0]
;;;606    	vGfBuffBlitBitmapFull(&stImageLocal, &stImage_needleA, 0, 0);
0015f8  e3a03000          MOV      r3,#0
0015fc  e1a02003          MOV      r2,r3
001600  e59f118c          LDR      r1,|L1.6036|
001604  e1a0000d          MOV      r0,sp
001608  ebfffffe          BL       vGfBuffBlitBitmapFull
;;;607    	vGfListExecute();
00160c  ebfffffe          BL       vGfListExecute
;;;608    	
;;;609    	stImageLocal = stImage_needleB;
001610  e3a02014          MOV      r2,#0x14
001614  e59f1180          LDR      r1,|L1.6044|
001618  e1a0000d          MOV      r0,sp
00161c  ebfffffe          BL       __aeabi_memcpy4
;;;610    	stImageLocal.u32Address = PHYSICAL(&u32_needleB[0]);
001620  e59f0178          LDR      r0,|L1.6048|
001624  e58d0000          STR      r0,[sp,#0]
;;;611    	vGfBuffBlitBitmapFull(&stImageLocal, &stImage_needleB, 0, 0);
001628  e3a03000          MOV      r3,#0
00162c  e1a02003          MOV      r2,r3
001630  e59f1164          LDR      r1,|L1.6044|
001634  e1a0000d          MOV      r0,sp
001638  ebfffffe          BL       vGfBuffBlitBitmapFull
;;;612    	vGfListExecute();	
00163c  ebfffffe          BL       vGfListExecute
;;;613    	
;;;614    	
;;;615    	stImageLocal = stImage_door_1;
001640  e3a02014          MOV      r2,#0x14
001644  e59f1158          LDR      r1,|L1.6052|
001648  e1a0000d          MOV      r0,sp
00164c  ebfffffe          BL       __aeabi_memcpy4
;;;616    	stImageLocal.u32Address = PHYSICAL(&u32_door_1[0]);
001650  e59f0150          LDR      r0,|L1.6056|
001654  e58d0000          STR      r0,[sp,#0]
;;;617    	vGfBuffBlitBitmapFull(&stImageLocal, &stImage_door_1, 0, 0);
001658  e3a03000          MOV      r3,#0
00165c  e1a02003          MOV      r2,r3
001660  e59f113c          LDR      r1,|L1.6052|
001664  e1a0000d          MOV      r0,sp
001668  ebfffffe          BL       vGfBuffBlitBitmapFull
;;;618    	vGfListExecute();
00166c  ebfffffe          BL       vGfListExecute
;;;619    	
;;;620    	stImageLocal = stImage_door_2;
001670  e3a02014          MOV      r2,#0x14
001674  e59f1130          LDR      r1,|L1.6060|
001678  e1a0000d          MOV      r0,sp
00167c  ebfffffe          BL       __aeabi_memcpy4
;;;621    	stImageLocal.u32Address = PHYSICAL(&u32_door_2[0]);
001680  e59f0128          LDR      r0,|L1.6064|
001684  e58d0000          STR      r0,[sp,#0]
;;;622    	vGfBuffBlitBitmapFull(&stImageLocal, &stImage_door_2, 0, 0);
001688  e3a03000          MOV      r3,#0
00168c  e1a02003          MOV      r2,r3
001690  e59f1114          LDR      r1,|L1.6060|
001694  e1a0000d          MOV      r0,sp
001698  ebfffffe          BL       vGfBuffBlitBitmapFull
;;;623    	vGfListExecute();
00169c  ebfffffe          BL       vGfListExecute
;;;624    	
;;;625    	stImageLocal = stImage_err_red;
0016a0  e3a02014          MOV      r2,#0x14
0016a4  e59f1108          LDR      r1,|L1.6068|
0016a8  e1a0000d          MOV      r0,sp
0016ac  ebfffffe          BL       __aeabi_memcpy4
;;;626    	stImageLocal.u32Address = PHYSICAL(&u32_err_red[0]);
0016b0  e59f0100          LDR      r0,|L1.6072|
0016b4  e58d0000          STR      r0,[sp,#0]
;;;627    	vGfBuffBlitBitmapFull(&stImageLocal, &stImage_err_red, 0, 0);
0016b8  e3a03000          MOV      r3,#0
0016bc  e1a02003          MOV      r2,r3
0016c0  e59f10ec          LDR      r1,|L1.6068|
0016c4  e1a0000d          MOV      r0,sp
0016c8  ebfffffe          BL       vGfBuffBlitBitmapFull
;;;628    	vGfListExecute();
0016cc  ebfffffe          BL       vGfListExecute
;;;629    	
;;;630    	stImageLocal = stImage_err_yellow;
0016d0  e3a02014          MOV      r2,#0x14
0016d4  e59f10e0          LDR      r1,|L1.6076|
0016d8  e1a0000d          MOV      r0,sp
0016dc  ebfffffe          BL       __aeabi_memcpy4
;;;631    	stImageLocal.u32Address = PHYSICAL(&u32_err_yellow[0]);
0016e0  e59f00d8          LDR      r0,|L1.6080|
0016e4  e58d0000          STR      r0,[sp,#0]
;;;632    	vGfBuffBlitBitmapFull(&stImageLocal, &stImage_err_yellow, 0, 0);
0016e8  e3a03000          MOV      r3,#0
0016ec  e1a02003          MOV      r2,r3
0016f0  e59f10c4          LDR      r1,|L1.6076|
0016f4  e1a0000d          MOV      r0,sp
0016f8  ebfffffe          BL       vGfBuffBlitBitmapFull
;;;633    	vGfListExecute();
0016fc  ebfffffe          BL       vGfListExecute
;;;634    
;;;635    
;;;636    /********************************************************************************************/	
;;;637    //	asm_copyfunction((uint32_t)&u32_g0_RLE[0], (uint32_t)&u32_g0_RLE[G0_SIZE - 1], (uint32_t)&u32_g0_RLE_RAM[0]);
;;;638    //	
;;;639    //	asm_copyfunction((uint32_t)&u32_g1_RLE[0], (uint32_t)&u32_g1_RLE[G1_SIZE - 1], (uint32_t)&u32_g1_RLE_RAM[0]);
;;;640    //	
;;;641    //	asm_copyfunction((uint32_t)&u32_g2_RLE[0], (uint32_t)&u32_g2_RLE[G2_SIZE - 1], (uint32_t)&u32_g2_RLE_RAM[0]);
;;;642    //	
;;;643    //	asm_copyfunction((uint32_t)&u32_g3_RLE[0], (uint32_t)&u32_g3_RLE[G3_SIZE - 1], (uint32_t)&u32_g3_RLE_RAM[0]);
;;;644    //	
;;;645    //	asm_copyfunction((uint32_t)&u32_g4_RLE[0], (uint32_t)&u32_g4_RLE[G4_SIZE - 1], (uint32_t)&u32_g4_RLE_RAM[0]);
;;;646    //	
;;;647    //	asm_copyfunction((uint32_t)&u32_g5_RLE[0], (uint32_t)&u32_g5_RLE[G5_SIZE - 1], (uint32_t)&u32_g5_RLE_RAM[0]);
;;;648    //	
;;;649    //	asm_copyfunction((uint32_t)&u32_g6_RLE[0], (uint32_t)&u32_g6_RLE[G6_SIZE - 1], (uint32_t)&u32_g6_RLE_RAM[0]);
;;;650    //	
;;;651    //	asm_copyfunction((uint32_t)&u32_g7_RLE[0], (uint32_t)&u32_g7_RLE[G7_SIZE - 1], (uint32_t)&u32_g7_RLE_RAM[0]);
;;;652    //	
;;;653    //	asm_copyfunction((uint32_t)&u32_g8_RLE[0], (uint32_t)&u32_g8_RLE[G8_SIZE - 1], (uint32_t)&u32_g8_RLE_RAM[0]);
;;;654    //	
;;;655    //	asm_copyfunction((uint32_t)&u32_g9_RLE[0], (uint32_t)&u32_g9_RLE[G9_SIZE - 1], (uint32_t)&u32_g9_RLE_RAM[0]);	
;;;656    //	
;;;657    //	asm_copyfunction((uint32_t)&u32_g10_RLE[0], (uint32_t)&u32_g10_RLE[G10_SIZE - 1], (uint32_t)&u32_g10_RLE_RAM[0]);
;;;658    //	
;;;659    //	asm_copyfunction((uint32_t)&u32_g11_RLE[0], (uint32_t)&u32_g11_RLE[G11_SIZE - 1], (uint32_t)&u32_g11_RLE_RAM[0]);	
;;;660    //	
;;;661    //	
;;;662    	
;;;663    	
;;;664    	
;;;665    	
;;;666    	
;;;667    	vGfListWaitToComplete();
001700  ebfffffe          BL       vGfListWaitToComplete
;;;668    }
001704  e28dd014          ADD      sp,sp,#0x14
001708  e49df004          POP      {pc}
;;;669    
                          ENDP

                  |L1.5900|
                          DCD      stImage_ERR+0x50
                  |L1.5904|
                          DCD      u32_ERR4
                  |L1.5908|
                          DCD      stImage_ERR+0x64
                  |L1.5912|
                          DCD      u32_ERR5
                  |L1.5916|
                          DCD      stImage_ERR+0x78
                  |L1.5920|
                          DCD      u32_ERR6
                  |L1.5924|
                          DCD      stImage_ERR+0x8c
                  |L1.5928|
                          DCD      u32_ERR7
                  |L1.5932|
                          DCD      stImage_ERR+0xa0
                  |L1.5936|
                          DCD      u32_ERR8
                  |L1.5940|
                          DCD      stImage_ERR+0xb4
                  |L1.5944|
                          DCD      u32_ERR9
                  |L1.5948|
                          DCD      stImage_fonta
                  |L1.5952|
                          DCD      u32_fonta
                  |L1.5956|
                          DCD      stImage_fonte
                  |L1.5960|
                          DCD      u32_fonte
                  |L1.5964|
                          DCD      stImage_fontf
                  |L1.5968|
                          DCD      u32_fontf
                  |L1.5972|
                          DCD      stImage_fontsoc
                  |L1.5976|
                          DCD      u32_fontsoc
                  |L1.5980|
                          DCD      stImage_fontv
                  |L1.5984|
                          DCD      u32_fontv
                  |L1.5988|
                          DCD      stImage_LEV+0x3c
                  |L1.5992|
                          DCD      u32_LEV_D
                  |L1.5996|
                          DCD      stImage_LEV+0x28
                  |L1.6000|
                          DCD      u32_LEV_N
                  |L1.6004|
                          DCD      stImage_LEV
                  |L1.6008|
                          DCD      u32_LEV_P
                  |L1.6012|
                          DCD      stImage_LEV+0x14
                  |L1.6016|
                          DCD      u32_LEV_R
                  |L1.6020|
                          DCD      stImage_LEV+0x50
                  |L1.6024|
                          DCD      u32_LEV_S
                  |L1.6028|
                          DCD      stImage_ready_on
                  |L1.6032|
                          DCD      u32_ready_on
                  |L1.6036|
                          DCD      stImage_needleA
                  |L1.6040|
                          DCD      u32_needleA
                  |L1.6044|
                          DCD      stImage_needleB
                  |L1.6048|
                          DCD      u32_needleB
                  |L1.6052|
                          DCD      stImage_door_1
                  |L1.6056|
                          DCD      u32_door_1
                  |L1.6060|
                          DCD      stImage_door_2
                  |L1.6064|
                          DCD      u32_door_2
                  |L1.6068|
                          DCD      stImage_err_red
                  |L1.6072|
                          DCD      u32_err_red
                  |L1.6076|
                          DCD      stImage_err_yellow
                  |L1.6080|
                          DCD      u32_err_yellow
