; generated by Component: ARM Compiler 5.05 update 2 (build 169) Tool: ArmCC [4d0f38]
; commandline ArmCC [--list --debug -c --asm --interleave -o..\out\png.o --asm_dir=..\out\ --list_dir=..\out\ --depend=..\out\png.d --cpu=Cortex-R4 --apcs=interwork -O0 --diag_suppress=9931 -I..\..\inc -I..\..\usecases\inc -I..\..\..\..\common\inc -I..\..\..\..\cortex_r4_keil\inc -I..\..\..\..\freetype\inc -I..\..\..\..\hldd\inc -I..\..\..\..\lldd\inc -I..\..\..\..\lldd\hdr -I..\..\..\..\mw\inc -I..\..\usecases\images\inc -I..\..\..\..\cortex_r4\inc -I..\..\src -IC:\Keil_v5\ARM\RV31\INC -IC:\Keil_v5\ARM\CMSIS\Include -D__UVISION_VERSION=516 -D__KEIL__ -DMEASURE_TX --omf_browse=..\out\png.crf ..\..\..\..\lldd\src\png.c]
                          ARM

                          AREA ||.text||, CODE, READONLY, ALIGN=2

                  vPNG_GetVersion PROC
;;;175    
;;;176    void vPNG_GetVersion(uint8_t** pau8ModuleRevision, uint8_t** pau8ModuleTag,
000000  e92d4070          PUSH     {r4-r6,lr}
;;;177                         uint8_t** pau8HeaderRevision, uint8_t** pau8HeaderTag,
;;;178                         uint8_t** pau8IORevision, uint8_t** pau8IOTag)
;;;179    {
000004  e1cd41d0          LDRD     r4,r5,[sp,#0x10]
;;;180       *pau8ModuleRevision = &au8LLDD_PNG_C_REVISION[0];
000008  e59f6e84          LDR      r6,|L1.3732|
00000c  e5806000          STR      r6,[r0,#0]
;;;181       *pau8ModuleTag      = &au8LLDD_PNG_C_TAG[0];
000010  e59f6e80          LDR      r6,|L1.3736|
000014  e5816000          STR      r6,[r1,#0]
;;;182       *pau8HeaderRevision = &au8LLDD_PNG_H_REVISION[0];
000018  e59f6e7c          LDR      r6,|L1.3740|
00001c  e5826000          STR      r6,[r2,#0]
;;;183       *pau8HeaderTag      = &au8LLDD_PNG_H_TAG[0];
000020  e59f6e78          LDR      r6,|L1.3744|
000024  e5836000          STR      r6,[r3,#0]
;;;184       *pau8IORevision     = &au8LLDD_PNG_IO_H_REVISION[0];
000028  e59f6e74          LDR      r6,|L1.3748|
00002c  e5846000          STR      r6,[r4,#0]
;;;185       *pau8IOTag          = &au8LLDD_PNG_IO_H_TAG[0];
000030  e59f6e70          LDR      r6,|L1.3752|
000034  e5856000          STR      r6,[r5,#0]
;;;186    }
000038  e8bd8070          POP      {r4-r6,pc}
;;;187    
                          ENDP

                  vPNG_Init PROC
;;;189    
;;;190    void vPNG_Init(void)
00003c  e59f0e68          LDR      r0,|L1.3756|
;;;191    {
;;;192        /* SWB buffer */
;;;193        u32SWBBufferStartAddress[0] = (uint32_t)&u8PNG_SWB_Buffer_Stream_0[0];
000040  e59f1e68          LDR      r1,|L1.3760|
000044  e5810000          STR      r0,[r1,#0]  ; u32SWBBufferStartAddress
;;;194        u32SWBBufferStartAddress[1] = (uint32_t)&u8PNG_SWB_Buffer_Stream_1[0];
000048  e59f0e64          LDR      r0,|L1.3764|
00004c  e5810004          STR      r0,[r1,#4]  ; u32SWBBufferStartAddress
;;;195        u32SWBBufferStartAddress[2] = (uint32_t)&u8PNG_SWB_Buffer_Stream_2[0];
000050  e59f0e60          LDR      r0,|L1.3768|
000054  e5810008          STR      r0,[r1,#8]  ; u32SWBBufferStartAddress
;;;196        u32SWBBufferStartAddress[3] = (uint32_t)&u8PNG_SWB_Buffer_Stream_3[0];
000058  e59f0e5c          LDR      r0,|L1.3772|
00005c  e581000c          STR      r0,[r1,#0xc]  ; u32SWBBufferStartAddress
;;;197        u32SWBBufferStartAddress[4] = (uint32_t)&u8PNG_SWB_Buffer_Stream_4[0];
000060  e59f0e58          LDR      r0,|L1.3776|
000064  e5810010          STR      r0,[r1,#0x10]  ; u32SWBBufferStartAddress
;;;198        u32SWBBufferStartAddress[5] = (uint32_t)&u8PNG_SWB_Buffer_Stream_5[0];
000068  e59f0e54          LDR      r0,|L1.3780|
00006c  e5810014          STR      r0,[r1,#0x14]  ; u32SWBBufferStartAddress
;;;199        u32SWBBufferStartAddress[6] = (uint32_t)&u8PNG_SWB_Buffer_Stream_6[0];
000070  e59f0e50          LDR      r0,|L1.3784|
000074  e5810018          STR      r0,[r1,#0x18]  ; u32SWBBufferStartAddress
;;;200        u32SWBBufferStartAddress[7] = (uint32_t)&u8PNG_SWB_Buffer_Stream_7[0];
000078  e59f0e4c          LDR      r0,|L1.3788|
00007c  e581001c          STR      r0,[r1,#0x1c]  ; u32SWBBufferStartAddress
;;;201    
;;;202        /* FSB buffer */
;;;203        u32FSBBufferStartAddress[0] = (uint32_t)&u8PNG_FSB_Buffer_Stream_0[0];
000080  e59f0e48          LDR      r0,|L1.3792|
000084  e59f1e48          LDR      r1,|L1.3796|
000088  e5810000          STR      r0,[r1,#0]  ; u32FSBBufferStartAddress
;;;204        u32FSBBufferStartAddress[1] = (uint32_t)&u8PNG_FSB_Buffer_Stream_1[0];
00008c  e59f0e44          LDR      r0,|L1.3800|
000090  e5810004          STR      r0,[r1,#4]  ; u32FSBBufferStartAddress
;;;205        u32FSBBufferStartAddress[2] = (uint32_t)&u8PNG_FSB_Buffer_Stream_2[0];
000094  e59f0e40          LDR      r0,|L1.3804|
000098  e5810008          STR      r0,[r1,#8]  ; u32FSBBufferStartAddress
;;;206        u32FSBBufferStartAddress[3] = (uint32_t)&u8PNG_FSB_Buffer_Stream_3[0];
00009c  e59f0e3c          LDR      r0,|L1.3808|
0000a0  e581000c          STR      r0,[r1,#0xc]  ; u32FSBBufferStartAddress
;;;207        u32FSBBufferStartAddress[4] = (uint32_t)&u8PNG_FSB_Buffer_Stream_4[0];
0000a4  e59f0e38          LDR      r0,|L1.3812|
0000a8  e5810010          STR      r0,[r1,#0x10]  ; u32FSBBufferStartAddress
;;;208        u32FSBBufferStartAddress[5] = (uint32_t)&u8PNG_FSB_Buffer_Stream_5[0];
0000ac  e59f0e34          LDR      r0,|L1.3816|
0000b0  e5810014          STR      r0,[r1,#0x14]  ; u32FSBBufferStartAddress
;;;209        u32FSBBufferStartAddress[6] = (uint32_t)&u8PNG_FSB_Buffer_Stream_6[0];
0000b4  e59f0e30          LDR      r0,|L1.3820|
0000b8  e5810018          STR      r0,[r1,#0x18]  ; u32FSBBufferStartAddress
;;;210        u32FSBBufferStartAddress[7] = (uint32_t)&u8PNG_FSB_Buffer_Stream_7[0];
0000bc  e59f0e2c          LDR      r0,|L1.3824|
0000c0  e581001c          STR      r0,[r1,#0x1c]  ; u32FSBBufferStartAddress
;;;211    
;;;212        /* Decoded Stream Virtual Start Address */
;;;213        u32VirtualMemoryStartAddress[0] = PNG_VIRTUAL_START_ADDRESS_STREAM_0;
0000c4  e3a00207          MOV      r0,#0x70000000
0000c8  e59f1e24          LDR      r1,|L1.3828|
0000cc  e5810000          STR      r0,[r1,#0]  ; u32VirtualMemoryStartAddress
;;;214        u32VirtualMemoryStartAddress[1] = PNG_VIRTUAL_START_ADDRESS_STREAM_1;
0000d0  e2800502          ADD      r0,r0,#0x800000
0000d4  e5810004          STR      r0,[r1,#4]  ; u32VirtualMemoryStartAddress
;;;215        u32VirtualMemoryStartAddress[2] = PNG_VIRTUAL_START_ADDRESS_STREAM_2;
0000d8  e3a00471          MOV      r0,#0x71000000
0000dc  e5810008          STR      r0,[r1,#8]  ; u32VirtualMemoryStartAddress
;;;216        u32VirtualMemoryStartAddress[3] = PNG_VIRTUAL_START_ADDRESS_STREAM_3;
0000e0  e2800502          ADD      r0,r0,#0x800000
0000e4  e581000c          STR      r0,[r1,#0xc]  ; u32VirtualMemoryStartAddress
;;;217        u32VirtualMemoryStartAddress[4] = PNG_VIRTUAL_START_ADDRESS_STREAM_4;
0000e8  e3a00472          MOV      r0,#0x72000000
0000ec  e5810010          STR      r0,[r1,#0x10]  ; u32VirtualMemoryStartAddress
;;;218        u32VirtualMemoryStartAddress[5] = PNG_VIRTUAL_START_ADDRESS_STREAM_5;
0000f0  e2800502          ADD      r0,r0,#0x800000
0000f4  e5810014          STR      r0,[r1,#0x14]  ; u32VirtualMemoryStartAddress
;;;219        u32VirtualMemoryStartAddress[6] = PNG_VIRTUAL_START_ADDRESS_STREAM_6;
0000f8  e3a00473          MOV      r0,#0x73000000
0000fc  e5810018          STR      r0,[r1,#0x18]  ; u32VirtualMemoryStartAddress
;;;220        u32VirtualMemoryStartAddress[7] = PNG_VIRTUAL_START_ADDRESS_STREAM_7;
000100  e2800502          ADD      r0,r0,#0x800000
000104  e581001c          STR      r0,[r1,#0x1c]  ; u32VirtualMemoryStartAddress
;;;221    }   
000108  e12fff1e          BX       lr
;;;222    
                          ENDP

                  i32PNG_SetUpStream PROC
;;;224    
;;;225    int32_t i32PNG_SetUpStream(png_stream_e eStream, uint32_t u32StartAddress, png_decode_mode_e eDecodeMode, png_decoded_output_format_e eOutputFormat, uint32_t u32Width, uint32_t u32Height)
00010c  e92d40f0          PUSH     {r4-r7,lr}
;;;226    {
000110  e1a04000          MOV      r4,r0
000114  e59d5014          LDR      r5,[sp,#0x14]
000118  e59d6018          LDR      r6,[sp,#0x18]
;;;227        int32_t i32Res = C_SUCCESS;
00011c  e3a00000          MOV      r0,#0
;;;228    
;;;229        /* check if the stream is in allowed range: */
;;;230        if (eStream > PNG_STREAM_7)
000120  e3540007          CMP      r4,#7
000124  da000001          BLE      |L1.304|
;;;231        {
;;;232            i32Res = C_FAILED;
000128  e3e00000          MVN      r0,#0
00012c  ea000060          B        |L1.692|
                  |L1.304|
;;;233        }
;;;234        else
;;;235        {
;;;236            /* reset png-decoder */
;;;237            vSetPNGSCTRL_SRST(eStream);
000130  e1a07404          LSL      r7,r4,#8
000134  e28774c1          ADD      r7,r7,#0xc1000000
000138  e24779ff          SUB      r7,r7,#0x3fc000
00013c  e5977080          LDR      r7,[r7,#0x80]
000140  e3c77002          BIC      r7,r7,#2
000144  e2877002          ADD      r7,r7,#2
000148  e1a0c404          LSL      r12,r4,#8
00014c  e28cc4c1          ADD      r12,r12,#0xc1000000
000150  e24cc9ff          SUB      r12,r12,#0x3fc000
000154  e58c7080          STR      r7,[r12,#0x80]
;;;238    
;;;239            if (biGetPNGSSTAT_PHASE(eStream) == 0)
000158  e1a07404          LSL      r7,r4,#8
00015c  e28774c1          ADD      r7,r7,#0xc1000000
000160  e24779ff          SUB      r7,r7,#0x3fc000
000164  e5977088          LDR      r7,[r7,#0x88]
000168  e2077001          AND      r7,r7,#1
00016c  e3570000          CMP      r7,#0
000170  1a00004e          BNE      |L1.688|
;;;240            {
;;;241                /* SWB buffer */
;;;242                vSetPNGSWBSA_SA(eStream, u32SWBBufferStartAddress[eStream]);
000174  e59f7d34          LDR      r7,|L1.3760|
000178  e7977104          LDR      r7,[r7,r4,LSL #2]
00017c  e1a0c404          LSL      r12,r4,#8
000180  e28cc4c1          ADD      r12,r12,#0xc1000000
000184  e24cc9ff          SUB      r12,r12,#0x3fc000
000188  e59cc0a4          LDR      r12,[r12,#0xa4]
00018c  e1a0c404          LSL      r12,r4,#8
000190  e28cc4c1          ADD      r12,r12,#0xc1000000
000194  e24cc9ff          SUB      r12,r12,#0x3fc000
000198  e58c70a4          STR      r7,[r12,#0xa4]
;;;243    
;;;244                /* FSB buffer */
;;;245                vSetPNGFSBSA_SA(eStream, u32FSBBufferStartAddress[eStream]);
00019c  e59f7d30          LDR      r7,|L1.3796|
0001a0  e7977104          LDR      r7,[r7,r4,LSL #2]
0001a4  e1a0c404          LSL      r12,r4,#8
0001a8  e28cc4c1          ADD      r12,r12,#0xc1000000
0001ac  e24cc9ff          SUB      r12,r12,#0x3fc000
0001b0  e59cc0a8          LDR      r12,[r12,#0xa8]
0001b4  e1a0c404          LSL      r12,r4,#8
0001b8  e28cc4c1          ADD      r12,r12,#0xc1000000
0001bc  e24cc9ff          SUB      r12,r12,#0x3fc000
0001c0  e58c70a8          STR      r7,[r12,#0xa8]
;;;246    
;;;247                /* Decoded Stream Virtual Start Address */
;;;248                vSetPNGDSVSA_SA(eStream, u32VirtualMemoryStartAddress[eStream]);
0001c4  e59f7d28          LDR      r7,|L1.3828|
0001c8  e7977104          LDR      r7,[r7,r4,LSL #2]
0001cc  e1a0c404          LSL      r12,r4,#8
0001d0  e28cc4c1          ADD      r12,r12,#0xc1000000
0001d4  e24cc9ff          SUB      r12,r12,#0x3fc000
0001d8  e59cc0ac          LDR      r12,[r12,#0xac]
0001dc  e1a0c404          LSL      r12,r4,#8
0001e0  e28cc4c1          ADD      r12,r12,#0xc1000000
0001e4  e24cc9ff          SUB      r12,r12,#0x3fc000
0001e8  e58c70ac          STR      r7,[r12,#0xac]
;;;249    
;;;250                /* set start address of input stream */
;;;251                vSetPNGSSBSA_SA(eStream, u32StartAddress);
0001ec  e1a07404          LSL      r7,r4,#8
0001f0  e28774c1          ADD      r7,r7,#0xc1000000
0001f4  e24779ff          SUB      r7,r7,#0x3fc000
0001f8  e59770a0          LDR      r7,[r7,#0xa0]
0001fc  e1a07404          LSL      r7,r4,#8
000200  e28774c1          ADD      r7,r7,#0xc1000000
000204  e24779ff          SUB      r7,r7,#0x3fc000
000208  e58710a0          STR      r1,[r7,#0xa0]
;;;252    
;;;253                /* decoded output format */
;;;254                vSetPNGSOF_FSEL(eStream, eOutputFormat);
00020c  e1a07404          LSL      r7,r4,#8
000210  e28774c1          ADD      r7,r7,#0xc1000000
000214  e24779ff          SUB      r7,r7,#0x3fc000
000218  e5977084          LDR      r7,[r7,#0x84]
00021c  e7c27013          BFI      r7,r3,#0,#3
000220  e1a0c404          LSL      r12,r4,#8
000224  e28cc4c1          ADD      r12,r12,#0xc1000000
000228  e24cc9ff          SUB      r12,r12,#0x3fc000
00022c  e58c7084          STR      r7,[r12,#0x84]
;;;255    
;;;256                /* set virtual memory end address */
;;;257                vSetPNGDSVEA_EA(eStream, u32VirtualMemoryStartAddress[eStream] + 4 * u32Width * u32Height);
000230  e59f7cbc          LDR      r7,|L1.3828|
000234  e7977104          LDR      r7,[r7,r4,LSL #2]
000238  e1a0c105          LSL      r12,r5,#2
00023c  e027769c          MLA      r7,r12,r6,r7
000240  e1a0c404          LSL      r12,r4,#8
000244  e28cc4c1          ADD      r12,r12,#0xc1000000
000248  e24cc9ff          SUB      r12,r12,#0x3fc000
00024c  e59cc0b0          LDR      r12,[r12,#0xb0]
000250  e1a0c404          LSL      r12,r4,#8
000254  e28cc4c1          ADD      r12,r12,#0xc1000000
000258  e24cc9ff          SUB      r12,r12,#0x3fc000
00025c  e58c70b0          STR      r7,[r12,#0xb0]
;;;258    
;;;259                /* set decode mode */
;;;260                vSetPNGSCTRL_LOOP(eStream, eDecodeMode);
000260  e1a07404          LSL      r7,r4,#8
000264  e28774c1          ADD      r7,r7,#0xc1000000
000268  e24779ff          SUB      r7,r7,#0x3fc000
00026c  e5977080          LDR      r7,[r7,#0x80]
000270  e7c27112          BFI      r7,r2,#2,#1
000274  e1a0c404          LSL      r12,r4,#8
000278  e28cc4c1          ADD      r12,r12,#0xc1000000
00027c  e24cc9ff          SUB      r12,r12,#0x3fc000
000280  e58c7080          STR      r7,[r12,#0x80]
;;;261             
;;;262                /* start stream */
;;;263                vSetPNGSCTRL_TRIG(eStream, 0x1U);
000284  e1a07404          LSL      r7,r4,#8
000288  e28774c1          ADD      r7,r7,#0xc1000000
00028c  e24779ff          SUB      r7,r7,#0x3fc000
000290  e5977080          LDR      r7,[r7,#0x80]
000294  e3c77001          BIC      r7,r7,#1
000298  e2877001          ADD      r7,r7,#1
00029c  e1a0c404          LSL      r12,r4,#8
0002a0  e28cc4c1          ADD      r12,r12,#0xc1000000
0002a4  e24cc9ff          SUB      r12,r12,#0x3fc000
0002a8  e58c7080          STR      r7,[r12,#0x80]
0002ac  ea000000          B        |L1.692|
                  |L1.688|
;;;264            }
;;;265            else
;;;266            {
;;;267                i32Res = C_FAILED;
0002b0  e3e00000          MVN      r0,#0
                  |L1.692|
;;;268            }
;;;269        }
;;;270    
;;;271    
;;;272    
;;;273        return i32Res;
;;;274    }
0002b4  e8bd80f0          POP      {r4-r7,pc}
;;;275    
                          ENDP

                  u32PNG_GetModuleVersion PROC
;;;277    
;;;278    uint32_t u32PNG_GetModuleVersion(void)
0002b8  e59f0c38          LDR      r0,|L1.3832|
;;;279    {
;;;280       return biGetPNGVER_VERSION();
0002bc  e5900000          LDR      r0,[r0,#0]
;;;281    }
0002c0  e12fff1e          BX       lr
;;;282    
                          ENDP

                  vPNG_SetIntType PROC
;;;284    
;;;285    void vPNG_SetIntType(png_int_type_e eIntType)
0002c4  e59f1c2c          LDR      r1,|L1.3832|
;;;286    {
;;;287        vSetPNGGCTRL_IPRE(eIntType);
0002c8  e5911004          LDR      r1,[r1,#4]
0002cc  e7c01010          BFI      r1,r0,#0,#1
0002d0  e59f2c20          LDR      r2,|L1.3832|
0002d4  e5821004          STR      r1,[r2,#4]
;;;288    }
0002d8  e12fff1e          BX       lr
;;;289    
                          ENDP

                  i32PNG_EnableGlobalInterruptSingle PROC
;;;291    
;;;292    int32_t i32PNG_EnableGlobalInterruptSingle(png_int_e eInt, png_enable_e eEn)
0002dc  e92d4010          PUSH     {r4,lr}
;;;293    {
0002e0  e1a02000          MOV      r2,r0
;;;294        int32_t i32Res = C_SUCCESS;
0002e4  e3a00000          MOV      r0,#0
;;;295    
;;;296        switch (eInt)
0002e8  e3520007          CMP      r2,#7
0002ec  308ff102          ADDCC    pc,pc,r2,LSL #2
0002f0  ea000037          B        |L1.980|
0002f4  ea000005          B        |L1.784|
0002f8  ea00000b          B        |L1.812|
0002fc  ea000011          B        |L1.840|
000300  ea000017          B        |L1.868|
000304  ea00001d          B        |L1.896|
000308  ea000023          B        |L1.924|
00030c  ea000029          B        |L1.952|
                  |L1.784|
;;;297        {
;;;298            case PNG_INT_VSWAEI:
000310  e320f000          NOP      
;;;299                {
;;;300                    vSetPNGGINTE_VSWAEIE(eEn);
000314  e59f3bdc          LDR      r3,|L1.3832|
000318  e5933008          LDR      r3,[r3,#8]
00031c  e7c03011          BFI      r3,r1,#0,#1
000320  e59f4bd0          LDR      r4,|L1.3832|
000324  e5843008          STR      r3,[r4,#8]
;;;301                }
;;;302                break;
000328  ea00002c          B        |L1.992|
                  |L1.812|
;;;303            case PNG_INT_VSUAEI:
00032c  e320f000          NOP      
;;;304                {
;;;305                    vSetPNGGINTE_VSUAEIE(eEn);
000330  e59f3bc0          LDR      r3,|L1.3832|
000334  e5933008          LDR      r3,[r3,#8]
000338  e7c13091          BFI      r3,r1,#1,#1
00033c  e59f4bb4          LDR      r4,|L1.3832|
000340  e5843008          STR      r3,[r4,#8]
;;;306                }
;;;307                break;
000344  ea000025          B        |L1.992|
                  |L1.840|
;;;308            case PNG_INT_CW2ROEI:
000348  e320f000          NOP      
;;;309                {
;;;310                    vSetPNGGINTE_CW2ROEIE(eEn);
00034c  e59f3ba4          LDR      r3,|L1.3832|
000350  e5933008          LDR      r3,[r3,#8]
000354  e7c23111          BFI      r3,r1,#2,#1
000358  e59f4b98          LDR      r4,|L1.3832|
00035c  e5843008          STR      r3,[r4,#8]
;;;311                }
;;;312                break;
000360  ea00001e          B        |L1.992|
                  |L1.868|
;;;313            case PNG_INT_CRSVAEI:
000364  e320f000          NOP      
;;;314                {
;;;315                    vSetPNGGINTE_CRSVAEIE(eEn);
000368  e59f3b88          LDR      r3,|L1.3832|
00036c  e5933008          LDR      r3,[r3,#8]
000370  e7c33191          BFI      r3,r1,#3,#1
000374  e59f4b7c          LDR      r4,|L1.3832|
000378  e5843008          STR      r3,[r4,#8]
;;;316                }
;;;317                break;
00037c  ea000017          B        |L1.992|
                  |L1.896|
;;;318            case PNG_INT_CPEI:
000380  e320f000          NOP      
;;;319                {
;;;320                    vSetPNGGINTE_CPEIE(eEn);
000384  e59f3b6c          LDR      r3,|L1.3832|
000388  e5933008          LDR      r3,[r3,#8]
00038c  e7c43211          BFI      r3,r1,#4,#1
000390  e59f4b60          LDR      r4,|L1.3832|
000394  e5843008          STR      r3,[r4,#8]
;;;321                }
;;;322                break;
000398  ea000010          B        |L1.992|
                  |L1.924|
;;;323            case PNG_INT_SWBEI:
00039c  e320f000          NOP      
;;;324                {
;;;325                    vSetPNGGINTE_SWBEIE(eEn);
0003a0  e59f3b50          LDR      r3,|L1.3832|
0003a4  e5933008          LDR      r3,[r3,#8]
0003a8  e7c53291          BFI      r3,r1,#5,#1
0003ac  e59f4b44          LDR      r4,|L1.3832|
0003b0  e5843008          STR      r3,[r4,#8]
;;;326                }
;;;327                break;
0003b4  ea000009          B        |L1.992|
                  |L1.952|
;;;328            case PNG_INT_SSBEI:
0003b8  e320f000          NOP      
;;;329                {
;;;330                    vSetPNGGINTE_SSBEIE(eEn);
0003bc  e59f3b34          LDR      r3,|L1.3832|
0003c0  e5933008          LDR      r3,[r3,#8]
0003c4  e7c63311          BFI      r3,r1,#6,#1
0003c8  e59f4b28          LDR      r4,|L1.3832|
0003cc  e5843008          STR      r3,[r4,#8]
;;;331                }
;;;332                break;
0003d0  ea000002          B        |L1.992|
                  |L1.980|
;;;333            default:
0003d4  e320f000          NOP      
;;;334                {
;;;335                    i32Res = C_FAILED;
0003d8  e3e00000          MVN      r0,#0
;;;336                }
;;;337                break;
0003dc  e320f000          NOP      
                  |L1.992|
0003e0  e320f000          NOP                            ;302
;;;338        }
;;;339    
;;;340        return i32Res;
;;;341    }
0003e4  e8bd8010          POP      {r4,pc}
;;;342    
                          ENDP

                  i32PNG_EnableStreamInterruptSingle PROC
;;;344    
;;;345    int32_t i32PNG_EnableStreamInterruptSingle(png_stream_e eStream, png_int_e eInt, png_enable_e eEn)
0003e8  e92d4030          PUSH     {r4,r5,lr}
;;;346    {
0003ec  e1a03000          MOV      r3,r0
;;;347        int32_t i32Res = C_SUCCESS;
0003f0  e3a00000          MOV      r0,#0
;;;348    
;;;349        switch (eInt)
0003f4  e2414007          SUB      r4,r1,#7
0003f8  e3540018          CMP      r4,#0x18
0003fc  308ff104          ADDCC    pc,pc,r4,LSL #2
000400  ea00011f          B        |L1.2180|
000404  ea000016          B        |L1.1124|
000408  ea000020          B        |L1.1168|
00040c  ea00002a          B        |L1.1212|
000410  ea000034          B        |L1.1256|
000414  ea00003e          B        |L1.1300|
000418  ea000048          B        |L1.1344|
00041c  ea000052          B        |L1.1388|
000420  ea00005c          B        |L1.1432|
000424  ea000066          B        |L1.1476|
000428  ea000070          B        |L1.1520|
00042c  ea00007a          B        |L1.1564|
000430  ea000084          B        |L1.1608|
000434  ea00008e          B        |L1.1652|
000438  ea000098          B        |L1.1696|
00043c  ea0000a2          B        |L1.1740|
000440  ea0000ac          B        |L1.1784|
000444  ea0000b6          B        |L1.1828|
000448  ea0000c0          B        |L1.1872|
00044c  ea0000ca          B        |L1.1916|
000450  ea0000d4          B        |L1.1960|
000454  ea0000de          B        |L1.2004|
000458  ea0000e8          B        |L1.2048|
00045c  ea0000f2          B        |L1.2092|
000460  ea0000fc          B        |L1.2136|
                  |L1.1124|
;;;350        {
;;;351            case PNG_INT_BJMPEI:
000464  e320f000          NOP      
;;;352                {
;;;353                    vSetPNGSINTE_BJMPEIE(eStream, eEn);
000468  e1a04403          LSL      r4,r3,#8
00046c  e28444c1          ADD      r4,r4,#0xc1000000
000470  e24449ff          SUB      r4,r4,#0x3fc000
000474  e59440c4          LDR      r4,[r4,#0xc4]
000478  e7c04012          BFI      r4,r2,#0,#1
00047c  e1a05403          LSL      r5,r3,#8
000480  e28554c1          ADD      r5,r5,#0xc1000000
000484  e24559ff          SUB      r5,r5,#0x3fc000
000488  e58540c4          STR      r4,[r5,#0xc4]
;;;354                }
;;;355                break;
00048c  ea0000ff          B        |L1.2192|
                  |L1.1168|
;;;356            case PNG_INT_UFMTEI:
000490  e320f000          NOP      
;;;357                {
;;;358                    vSetPNGSINTE_UFMTEIE(eStream, eEn);
000494  e1a04403          LSL      r4,r3,#8
000498  e28444c1          ADD      r4,r4,#0xc1000000
00049c  e24449ff          SUB      r4,r4,#0x3fc000
0004a0  e59440c4          LDR      r4,[r4,#0xc4]
0004a4  e7c14092          BFI      r4,r2,#1,#1
0004a8  e1a05403          LSL      r5,r3,#8
0004ac  e28554c1          ADD      r5,r5,#0xc1000000
0004b0  e24559ff          SUB      r5,r5,#0x3fc000
0004b4  e58540c4          STR      r4,[r5,#0xc4]
;;;359                }
;;;360                break;
0004b8  ea0000f4          B        |L1.2192|
                  |L1.1212|
;;;361            case PNG_INT_OOCEI:
0004bc  e320f000          NOP      
;;;362                {
;;;363                    vSetPNGSINTE_OOCEIE(eStream, eEn);
0004c0  e1a04403          LSL      r4,r3,#8
0004c4  e28444c1          ADD      r4,r4,#0xc1000000
0004c8  e24449ff          SUB      r4,r4,#0x3fc000
0004cc  e59440c4          LDR      r4,[r4,#0xc4]
0004d0  e7c24112          BFI      r4,r2,#2,#1
0004d4  e1a05403          LSL      r5,r3,#8
0004d8  e28554c1          ADD      r5,r5,#0xc1000000
0004dc  e24559ff          SUB      r5,r5,#0x3fc000
0004e0  e58540c4          STR      r4,[r5,#0xc4]
;;;364                }
;;;365                break;
0004e4  ea0000e9          B        |L1.2192|
                  |L1.1256|
;;;366            case PNG_INT_CHSEI:
0004e8  e320f000          NOP      
;;;367                {
;;;368                    vSetPNGSINTE_CHSEIE(eStream, eEn);
0004ec  e1a04403          LSL      r4,r3,#8
0004f0  e28444c1          ADD      r4,r4,#0xc1000000
0004f4  e24449ff          SUB      r4,r4,#0x3fc000
0004f8  e59440c4          LDR      r4,[r4,#0xc4]
0004fc  e7c34192          BFI      r4,r2,#3,#1
000500  e1a05403          LSL      r5,r3,#8
000504  e28554c1          ADD      r5,r5,#0xc1000000
000508  e24559ff          SUB      r5,r5,#0x3fc000
00050c  e58540c4          STR      r4,[r5,#0xc4]
;;;369                }
;;;370                break;
000510  ea0000de          B        |L1.2192|
                  |L1.1300|
;;;371            case PNG_INT_EYEOSEI:
000514  e320f000          NOP      
;;;372                {
;;;373                    vSetPNGSINTE_EYEOSEIE(eStream, eEn);
000518  e1a04403          LSL      r4,r3,#8
00051c  e28444c1          ADD      r4,r4,#0xc1000000
000520  e24449ff          SUB      r4,r4,#0x3fc000
000524  e59440c4          LDR      r4,[r4,#0xc4]
000528  e7c44212          BFI      r4,r2,#4,#1
00052c  e1a05403          LSL      r5,r3,#8
000530  e28554c1          ADD      r5,r5,#0xc1000000
000534  e24559ff          SUB      r5,r5,#0x3fc000
000538  e58540c4          STR      r4,[r5,#0xc4]
;;;374                }
;;;375                break;
00053c  ea0000d3          B        |L1.2192|
                  |L1.1344|
;;;376            case PNG_INT_NOEOSEI:
000540  e320f000          NOP      
;;;377                {
;;;378                    vSetPNGSINTE_NOEOSEIE(eStream, eEn);
000544  e1a04403          LSL      r4,r3,#8
000548  e28444c1          ADD      r4,r4,#0xc1000000
00054c  e24449ff          SUB      r4,r4,#0x3fc000
000550  e59440c4          LDR      r4,[r4,#0xc4]
000554  e7c54292          BFI      r4,r2,#5,#1
000558  e1a05403          LSL      r5,r3,#8
00055c  e28554c1          ADD      r5,r5,#0xc1000000
000560  e24559ff          SUB      r5,r5,#0x3fc000
000564  e58540c4          STR      r4,[r5,#0xc4]
;;;379                }
;;;380                break;
000568  ea0000c8          B        |L1.2192|
                  |L1.1388|
;;;381            case PNG_INT_CMPEI:
00056c  e320f000          NOP      
;;;382                {
;;;383                    vSetPNGSINTE_CMPEIE(eStream, eEn);
000570  e1a04403          LSL      r4,r3,#8
000574  e28444c1          ADD      r4,r4,#0xc1000000
000578  e24449ff          SUB      r4,r4,#0x3fc000
00057c  e59440c4          LDR      r4,[r4,#0xc4]
000580  e7c64312          BFI      r4,r2,#6,#1
000584  e1a05403          LSL      r5,r3,#8
000588  e28554c1          ADD      r5,r5,#0xc1000000
00058c  e24559ff          SUB      r5,r5,#0x3fc000
000590  e58540c4          STR      r4,[r5,#0xc4]
;;;384                }
;;;385                break;
000594  ea0000bd          B        |L1.2192|
                  |L1.1432|
;;;386            case PNG_INT_BTYPEEI:
000598  e320f000          NOP      
;;;387                {
;;;388                    vSetPNGSINTE_BTYPEEIE(eStream, eEn);
00059c  e1a04403          LSL      r4,r3,#8
0005a0  e28444c1          ADD      r4,r4,#0xc1000000
0005a4  e24449ff          SUB      r4,r4,#0x3fc000
0005a8  e59440c4          LDR      r4,[r4,#0xc4]
0005ac  e7c74392          BFI      r4,r2,#7,#1
0005b0  e1a05403          LSL      r5,r3,#8
0005b4  e28554c1          ADD      r5,r5,#0xc1000000
0005b8  e24559ff          SUB      r5,r5,#0x3fc000
0005bc  e58540c4          STR      r4,[r5,#0xc4]
;;;389                }
;;;390                break;
0005c0  ea0000b2          B        |L1.2192|
                  |L1.1476|
;;;391            case PNG_INT_DISTEI:
0005c4  e320f000          NOP      
;;;392                {
;;;393                    vSetPNGSINTE_DISTEIE(eStream, eEn);
0005c8  e1a04403          LSL      r4,r3,#8
0005cc  e28444c1          ADD      r4,r4,#0xc1000000
0005d0  e24449ff          SUB      r4,r4,#0x3fc000
0005d4  e59440c4          LDR      r4,[r4,#0xc4]
0005d8  e7c84412          BFI      r4,r2,#8,#1
0005dc  e1a05403          LSL      r5,r3,#8
0005e0  e28554c1          ADD      r5,r5,#0xc1000000
0005e4  e24559ff          SUB      r5,r5,#0x3fc000
0005e8  e58540c4          STR      r4,[r5,#0xc4]
;;;394                }
;;;395                break;
0005ec  ea0000a7          B        |L1.2192|
                  |L1.1520|
;;;396            case PNG_INT_NCBSEI:
0005f0  e320f000          NOP      
;;;397                {
;;;398                    vSetPNGSINTE_NCBSEIE(eStream, eEn);
0005f4  e1a04403          LSL      r4,r3,#8
0005f8  e28444c1          ADD      r4,r4,#0xc1000000
0005fc  e24449ff          SUB      r4,r4,#0x3fc000
000600  e59440c4          LDR      r4,[r4,#0xc4]
000604  e7c94492          BFI      r4,r2,#9,#1
000608  e1a05403          LSL      r5,r3,#8
00060c  e28554c1          ADD      r5,r5,#0xc1000000
000610  e24559ff          SUB      r5,r5,#0x3fc000
000614  e58540c4          STR      r4,[r5,#0xc4]
;;;399                }
;;;400                break;
000618  ea00009c          B        |L1.2192|
                  |L1.1564|
;;;401            case PNG_INT_DECEI:
00061c  e320f000          NOP      
;;;402                {
;;;403                    vSetPNGSINTE_DECEIE(eStream, eEn);
000620  e1a04403          LSL      r4,r3,#8
000624  e28444c1          ADD      r4,r4,#0xc1000000
000628  e24449ff          SUB      r4,r4,#0x3fc000
00062c  e59440c4          LDR      r4,[r4,#0xc4]
000630  e7ca4512          BFI      r4,r2,#10,#1
000634  e1a05403          LSL      r5,r3,#8
000638  e28554c1          ADD      r5,r5,#0xc1000000
00063c  e24559ff          SUB      r5,r5,#0x3fc000
000640  e58540c4          STR      r4,[r5,#0xc4]
;;;404                }
;;;405                break;
000644  ea000091          B        |L1.2192|
                  |L1.1608|
;;;406            case PNG_INT_FJMPWI:
000648  e320f000          NOP      
;;;407                {
;;;408                    vSetPNGSINTE_FJMPWIE(eStream, eEn);
00064c  e1a04403          LSL      r4,r3,#8
000650  e28444c1          ADD      r4,r4,#0xc1000000
000654  e24449ff          SUB      r4,r4,#0x3fc000
000658  e59440c4          LDR      r4,[r4,#0xc4]
00065c  e7d04812          BFI      r4,r2,#16,#1
000660  e1a05403          LSL      r5,r3,#8
000664  e28554c1          ADD      r5,r5,#0xc1000000
000668  e24559ff          SUB      r5,r5,#0x3fc000
00066c  e58540c4          STR      r4,[r5,#0xc4]
;;;409                }
;;;410                break;
000670  ea000086          B        |L1.2192|
                  |L1.1652|
;;;411            case PNG_INT_UCHNKWI:
000674  e320f000          NOP      
;;;412                {
;;;413                    vSetPNGSINTE_UCHNKWIE(eStream, eEn);
000678  e1a04403          LSL      r4,r3,#8
00067c  e28444c1          ADD      r4,r4,#0xc1000000
000680  e24449ff          SUB      r4,r4,#0x3fc000
000684  e59440c4          LDR      r4,[r4,#0xc4]
000688  e7d14892          BFI      r4,r2,#17,#1
00068c  e1a05403          LSL      r5,r3,#8
000690  e28554c1          ADD      r5,r5,#0xc1000000
000694  e24559ff          SUB      r5,r5,#0x3fc000
000698  e58540c4          STR      r4,[r5,#0xc4]
;;;414                }
;;;415                break;
00069c  ea00007b          B        |L1.2192|
                  |L1.1696|
;;;416            case PNG_INT_PDICTWI:
0006a0  e320f000          NOP      
;;;417                {
;;;418                    vSetPNGSINTE_PDICTWIE(eStream, eEn);
0006a4  e1a04403          LSL      r4,r3,#8
0006a8  e28444c1          ADD      r4,r4,#0xc1000000
0006ac  e24449ff          SUB      r4,r4,#0x3fc000
0006b0  e59440c4          LDR      r4,[r4,#0xc4]
0006b4  e7d24912          BFI      r4,r2,#18,#1
0006b8  e1a05403          LSL      r5,r3,#8
0006bc  e28554c1          ADD      r5,r5,#0xc1000000
0006c0  e24559ff          SUB      r5,r5,#0x3fc000
0006c4  e58540c4          STR      r4,[r5,#0xc4]
;;;419                }
;;;420                break;
0006c8  ea000070          B        |L1.2192|
                  |L1.1740|
;;;421            case PNG_INT_ULLWI:
0006cc  e320f000          NOP      
;;;422                {
;;;423                    vSetPNGSINTE_ULLWIE(eStream, eEn);
0006d0  e1a04403          LSL      r4,r3,#8
0006d4  e28444c1          ADD      r4,r4,#0xc1000000
0006d8  e24449ff          SUB      r4,r4,#0x3fc000
0006dc  e59440c4          LDR      r4,[r4,#0xc4]
0006e0  e7d34992          BFI      r4,r2,#19,#1
0006e4  e1a05403          LSL      r5,r3,#8
0006e8  e28554c1          ADD      r5,r5,#0xc1000000
0006ec  e24559ff          SUB      r5,r5,#0x3fc000
0006f0  e58540c4          STR      r4,[r5,#0xc4]
;;;424                }
;;;425                break;
0006f4  ea000065          B        |L1.2192|
                  |L1.1784|
;;;426            case PNG_INT_UDISTWI:
0006f8  e320f000          NOP      
;;;427                {
;;;428                    vSetPNGSINTE_UDISTWIE(eStream, eEn);
0006fc  e1a04403          LSL      r4,r3,#8
000700  e28444c1          ADD      r4,r4,#0xc1000000
000704  e24449ff          SUB      r4,r4,#0x3fc000
000708  e59440c4          LDR      r4,[r4,#0xc4]
00070c  e7d44a12          BFI      r4,r2,#20,#1
000710  e1a05403          LSL      r5,r3,#8
000714  e28554c1          ADD      r5,r5,#0xc1000000
000718  e24559ff          SUB      r5,r5,#0x3fc000
00071c  e58540c4          STR      r4,[r5,#0xc4]
;;;429                }
;;;430                break;
000720  ea00005a          B        |L1.2192|
                  |L1.1828|
;;;431            case PNG_INT_OFCWI:
000724  e320f000          NOP      
;;;432                {
;;;433                    vSetPNGSINTE_OFCWIE(eStream, eEn);
000728  e1a04403          LSL      r4,r3,#8
00072c  e28444c1          ADD      r4,r4,#0xc1000000
000730  e24449ff          SUB      r4,r4,#0x3fc000
000734  e59440c4          LDR      r4,[r4,#0xc4]
000738  e7d54a92          BFI      r4,r2,#21,#1
00073c  e1a05403          LSL      r5,r3,#8
000740  e28554c1          ADD      r5,r5,#0xc1000000
000744  e24559ff          SUB      r5,r5,#0x3fc000
000748  e58540c4          STR      r4,[r5,#0xc4]
;;;434                }
;;;435                break;
00074c  ea00004f          B        |L1.2192|
                  |L1.1872|
;;;436            case PNG_INT_IHDRDI:
000750  e320f000          NOP      
;;;437                {
;;;438                    vSetPNGSINTE_IHDRDIE(eStream, eEn);
000754  e1a04403          LSL      r4,r3,#8
000758  e28444c1          ADD      r4,r4,#0xc1000000
00075c  e24449ff          SUB      r4,r4,#0x3fc000
000760  e59440c4          LDR      r4,[r4,#0xc4]
000764  e7d84c12          BFI      r4,r2,#24,#1
000768  e1a05403          LSL      r5,r3,#8
00076c  e28554c1          ADD      r5,r5,#0xc1000000
000770  e24559ff          SUB      r5,r5,#0x3fc000
000774  e58540c4          STR      r4,[r5,#0xc4]
;;;439                }
;;;440                break;
000778  ea000044          B        |L1.2192|
                  |L1.1916|
;;;441            case PNG_INT_PLTEDI:
00077c  e320f000          NOP      
;;;442                {
;;;443                    vSetPNGSINTE_PLTEDIE(eStream, eEn);
000780  e1a04403          LSL      r4,r3,#8
000784  e28444c1          ADD      r4,r4,#0xc1000000
000788  e24449ff          SUB      r4,r4,#0x3fc000
00078c  e59440c4          LDR      r4,[r4,#0xc4]
000790  e7d94c92          BFI      r4,r2,#25,#1
000794  e1a05403          LSL      r5,r3,#8
000798  e28554c1          ADD      r5,r5,#0xc1000000
00079c  e24559ff          SUB      r5,r5,#0x3fc000
0007a0  e58540c4          STR      r4,[r5,#0xc4]
;;;444                }
;;;445                break;
0007a4  ea000039          B        |L1.2192|
                  |L1.1960|
;;;446            case PNG_INT_IDATDI:
0007a8  e320f000          NOP      
;;;447                {
;;;448                    vSetPNGSINTE_IDATDIE(eStream, eEn);
0007ac  e1a04403          LSL      r4,r3,#8
0007b0  e28444c1          ADD      r4,r4,#0xc1000000
0007b4  e24449ff          SUB      r4,r4,#0x3fc000
0007b8  e59440c4          LDR      r4,[r4,#0xc4]
0007bc  e7da4d12          BFI      r4,r2,#26,#1
0007c0  e1a05403          LSL      r5,r3,#8
0007c4  e28554c1          ADD      r5,r5,#0xc1000000
0007c8  e24559ff          SUB      r5,r5,#0x3fc000
0007cc  e58540c4          STR      r4,[r5,#0xc4]
;;;449                }
;;;450                break;
0007d0  ea00002e          B        |L1.2192|
                  |L1.2004|
;;;451            case PNG_INT_IENDDI:
0007d4  e320f000          NOP      
;;;452                {
;;;453                    vSetPNGSINTE_IENDDIE(eStream, eEn);
0007d8  e1a04403          LSL      r4,r3,#8
0007dc  e28444c1          ADD      r4,r4,#0xc1000000
0007e0  e24449ff          SUB      r4,r4,#0x3fc000
0007e4  e59440c4          LDR      r4,[r4,#0xc4]
0007e8  e7db4d92          BFI      r4,r2,#27,#1
0007ec  e1a05403          LSL      r5,r3,#8
0007f0  e28554c1          ADD      r5,r5,#0xc1000000
0007f4  e24559ff          SUB      r5,r5,#0x3fc000
0007f8  e58540c4          STR      r4,[r5,#0xc4]
;;;454                }
;;;455                break;
0007fc  ea000023          B        |L1.2192|
                  |L1.2048|
;;;456            case PNG_INT_DCDSI:
000800  e320f000          NOP      
;;;457                {
;;;458                    vSetPNGSINTE_DCDSIE(eStream, eEn);
000804  e1a04403          LSL      r4,r3,#8
000808  e28444c1          ADD      r4,r4,#0xc1000000
00080c  e24449ff          SUB      r4,r4,#0x3fc000
000810  e59440c4          LDR      r4,[r4,#0xc4]
000814  e7dc4e12          BFI      r4,r2,#28,#1
000818  e1a05403          LSL      r5,r3,#8
00081c  e28554c1          ADD      r5,r5,#0xc1000000
000820  e24559ff          SUB      r5,r5,#0x3fc000
000824  e58540c4          STR      r4,[r5,#0xc4]
;;;459                }
;;;460                break;
000828  ea000018          B        |L1.2192|
                  |L1.2092|
;;;461            case PNG_INT_SIDLEI:
00082c  e320f000          NOP      
;;;462                {
;;;463                    vSetPNGSINTE_SIDLEIE(eStream, eEn);
000830  e1a04403          LSL      r4,r3,#8
000834  e28444c1          ADD      r4,r4,#0xc1000000
000838  e24449ff          SUB      r4,r4,#0x3fc000
00083c  e59440c4          LDR      r4,[r4,#0xc4]
000840  e7dd4e92          BFI      r4,r2,#29,#1
000844  e1a05403          LSL      r5,r3,#8
000848  e28554c1          ADD      r5,r5,#0xc1000000
00084c  e24559ff          SUB      r5,r5,#0x3fc000
000850  e58540c4          STR      r4,[r5,#0xc4]
;;;464                }
;;;465                break;
000854  ea00000d          B        |L1.2192|
                  |L1.2136|
;;;466            case PNG_INT_DSFFULLIE:
000858  e320f000          NOP      
;;;467                {
;;;468                    vSetPNGSINTE_DSFFULLIE(eStream, eEn);
00085c  e1a04403          LSL      r4,r3,#8
000860  e28444c1          ADD      r4,r4,#0xc1000000
000864  e24449ff          SUB      r4,r4,#0x3fc000
000868  e59440c4          LDR      r4,[r4,#0xc4]
00086c  e7de4f12          BFI      r4,r2,#30,#1
000870  e1a05403          LSL      r5,r3,#8
000874  e28554c1          ADD      r5,r5,#0xc1000000
000878  e24559ff          SUB      r5,r5,#0x3fc000
00087c  e58540c4          STR      r4,[r5,#0xc4]
;;;469                }
;;;470                break;
000880  ea000002          B        |L1.2192|
                  |L1.2180|
;;;471            default:
000884  e320f000          NOP      
;;;472                {
;;;473                    i32Res = C_FAILED;
000888  e3e00000          MVN      r0,#0
;;;474                }
;;;475                break;
00088c  e320f000          NOP      
                  |L1.2192|
000890  e320f000          NOP                            ;355
;;;476        }
;;;477    
;;;478        return i32Res;
;;;479    }
000894  e8bd8030          POP      {r4,r5,pc}
;;;480    
                          ENDP

                  vPNG_EnableGlobalInterruptAll PROC
;;;482    
;;;483    void vPNG_EnableGlobalInterruptAll(uint8_t u8Value)
000898  e59f1658          LDR      r1,|L1.3832|
;;;484    {
;;;485        vSetPNGGINTELL(u8Value);
00089c  e5c10008          STRB     r0,[r1,#8]
;;;486    }
0008a0  e12fff1e          BX       lr
;;;487    
                          ENDP

                  vPNG_EnableStreamInterruptAll PROC
;;;489    
;;;490    void vPNG_EnableStreamInterruptAll(png_stream_e eStream, uint32_t u32Value)
0008a4  e1a02400          LSL      r2,r0,#8
;;;491    {
;;;492        vSetPNGSINTE(eStream, u32Value);
0008a8  e28224c1          ADD      r2,r2,#0xc1000000
0008ac  e24229ff          SUB      r2,r2,#0x3fc000
0008b0  e58210c4          STR      r1,[r2,#0xc4]
;;;493    }
0008b4  e12fff1e          BX       lr
;;;494    
                          ENDP

                  i32PNG_GetGlobalInterruptStatusSingle PROC
;;;496    
;;;497    int32_t i32PNG_GetGlobalInterruptStatusSingle(png_int_e eInt, png_int_status_e * peIntStatus)
0008b8  e1a02000          MOV      r2,r0
;;;498    {
;;;499        int32_t i32Res = C_SUCCESS;
0008bc  e3a00000          MOV      r0,#0
;;;500    
;;;501        if (0x00 != peIntStatus)
0008c0  e3510000          CMP      r1,#0
0008c4  0a000037          BEQ      |L1.2472|
;;;502        {
;;;503            switch (eInt)
0008c8  e3520007          CMP      r2,#7
0008cc  308ff102          ADDCC    pc,pc,r2,LSL #2
0008d0  ea000030          B        |L1.2456|
0008d4  ea000005          B        |L1.2288|
0008d8  ea00000a          B        |L1.2312|
0008dc  ea00000f          B        |L1.2336|
0008e0  ea000014          B        |L1.2360|
0008e4  ea000019          B        |L1.2384|
0008e8  ea00001e          B        |L1.2408|
0008ec  ea000023          B        |L1.2432|
                  |L1.2288|
;;;504            {
;;;505                case PNG_INT_VSWAEI:
0008f0  e320f000          NOP      
;;;506                    {
;;;507                        *peIntStatus = (png_int_status_e)biGetPNGGINTS_VSWAEIS();
0008f4  e59f35fc          LDR      r3,|L1.3832|
0008f8  e593300c          LDR      r3,[r3,#0xc]
0008fc  e2033001          AND      r3,r3,#1
000900  e5c13000          STRB     r3,[r1,#0]
;;;508                    }
;;;509                    break;
000904  ea000026          B        |L1.2468|
                  |L1.2312|
;;;510                case PNG_INT_VSUAEI:
000908  e320f000          NOP      
;;;511                    {
;;;512                        *peIntStatus = (png_int_status_e)biGetPNGGINTS_VSUAEIS();
00090c  e59f35e4          LDR      r3,|L1.3832|
000910  e593300c          LDR      r3,[r3,#0xc]
000914  e7e030d3          UBFX     r3,r3,#1,#1
000918  e5c13000          STRB     r3,[r1,#0]
;;;513                    }
;;;514                    break;
00091c  ea000020          B        |L1.2468|
                  |L1.2336|
;;;515                case PNG_INT_CW2ROEI:
000920  e320f000          NOP      
;;;516                    {
;;;517                        *peIntStatus = (png_int_status_e)biGetPNGGINTS_CW2ROEIS();
000924  e59f35cc          LDR      r3,|L1.3832|
000928  e593300c          LDR      r3,[r3,#0xc]
00092c  e7e03153          UBFX     r3,r3,#2,#1
000930  e5c13000          STRB     r3,[r1,#0]
;;;518                    }
;;;519                    break;
000934  ea00001a          B        |L1.2468|
                  |L1.2360|
;;;520                case PNG_INT_CRSVAEI:
000938  e320f000          NOP      
;;;521                    {
;;;522                        *peIntStatus = (png_int_status_e)biGetPNGGINTS_CRSVAEIS();
00093c  e59f35b4          LDR      r3,|L1.3832|
000940  e593300c          LDR      r3,[r3,#0xc]
000944  e7e031d3          UBFX     r3,r3,#3,#1
000948  e5c13000          STRB     r3,[r1,#0]
;;;523                    }
;;;524                    break;
00094c  ea000014          B        |L1.2468|
                  |L1.2384|
;;;525                case PNG_INT_CPEI:
000950  e320f000          NOP      
;;;526                    {
;;;527                        *peIntStatus = (png_int_status_e)biGetPNGGINTS_CPEIS();
000954  e59f359c          LDR      r3,|L1.3832|
000958  e593300c          LDR      r3,[r3,#0xc]
00095c  e7e03253          UBFX     r3,r3,#4,#1
000960  e5c13000          STRB     r3,[r1,#0]
;;;528                    }
;;;529                    break;
000964  ea00000e          B        |L1.2468|
                  |L1.2408|
;;;530                case PNG_INT_SWBEI:
000968  e320f000          NOP      
;;;531                    {
;;;532                        *peIntStatus = (png_int_status_e)biGetPNGGINTS_SWBEIS();
00096c  e59f3584          LDR      r3,|L1.3832|
000970  e593300c          LDR      r3,[r3,#0xc]
000974  e7e032d3          UBFX     r3,r3,#5,#1
000978  e5c13000          STRB     r3,[r1,#0]
;;;533                    }
;;;534                    break;
00097c  ea000008          B        |L1.2468|
                  |L1.2432|
;;;535                case PNG_INT_SSBEI:
000980  e320f000          NOP      
;;;536                    {
;;;537                        *peIntStatus = (png_int_status_e)biGetPNGGINTS_SSBEIS();
000984  e59f356c          LDR      r3,|L1.3832|
000988  e593300c          LDR      r3,[r3,#0xc]
00098c  e7e03353          UBFX     r3,r3,#6,#1
000990  e5c13000          STRB     r3,[r1,#0]
;;;538                    }
;;;539                    break;
000994  ea000002          B        |L1.2468|
                  |L1.2456|
;;;540                default:
000998  e320f000          NOP      
;;;541                    {
;;;542                        i32Res = C_FAILED;
00099c  e3e00000          MVN      r0,#0
;;;543                    }
;;;544                    break;
0009a0  e320f000          NOP      
                  |L1.2468|
0009a4  ea000000          B        |L1.2476|
                  |L1.2472|
;;;545            }
;;;546        }
;;;547        else
;;;548        {
;;;549            i32Res = C_FAILED;
0009a8  e3e00000          MVN      r0,#0
                  |L1.2476|
;;;550        }
;;;551    
;;;552        return i32Res;
;;;553    }
0009ac  e12fff1e          BX       lr
;;;554    /****************************************************************************/
                          ENDP

                  i32PNG_GetStreamInterruptStatusSingle PROC
;;;555    
;;;556    int32_t i32PNG_GetStreamInterruptStatusSingle(png_stream_e eStream, png_int_e eInt, png_int_status_e * peIntStatus)
0009b0  e92d4010          PUSH     {r4,lr}
;;;557    {
0009b4  e1a03000          MOV      r3,r0
;;;558        int32_t i32Res = C_SUCCESS;
0009b8  e3a00000          MOV      r0,#0
;;;559    
;;;560    
;;;561        if (0x00 != peIntStatus)
0009bc  e3520000          CMP      r2,#0
0009c0  0a0000df          BEQ      |L1.3396|
;;;562        {
;;;563            switch (eInt)
0009c4  e2414007          SUB      r4,r1,#7
0009c8  e3540018          CMP      r4,#0x18
0009cc  308ff104          ADDCC    pc,pc,r4,LSL #2
0009d0  ea0000d7          B        |L1.3380|
0009d4  ea000016          B        |L1.2612|
0009d8  ea00001d          B        |L1.2644|
0009dc  ea000024          B        |L1.2676|
0009e0  ea00002b          B        |L1.2708|
0009e4  ea000032          B        |L1.2740|
0009e8  ea000039          B        |L1.2772|
0009ec  ea000040          B        |L1.2804|
0009f0  ea000047          B        |L1.2836|
0009f4  ea00004e          B        |L1.2868|
0009f8  ea000055          B        |L1.2900|
0009fc  ea00005c          B        |L1.2932|
000a00  ea000063          B        |L1.2964|
000a04  ea00006a          B        |L1.2996|
000a08  ea000071          B        |L1.3028|
000a0c  ea000078          B        |L1.3060|
000a10  ea00007f          B        |L1.3092|
000a14  ea000086          B        |L1.3124|
000a18  ea00008d          B        |L1.3156|
000a1c  ea000094          B        |L1.3188|
000a20  ea00009b          B        |L1.3220|
000a24  ea0000a2          B        |L1.3252|
000a28  ea0000a9          B        |L1.3284|
000a2c  ea0000b0          B        |L1.3316|
000a30  ea0000b7          B        |L1.3348|
                  |L1.2612|
;;;564            {
;;;565                case PNG_INT_BJMPEI:
000a34  e320f000          NOP      
;;;566                    {
;;;567                        *peIntStatus = (png_int_status_e)biGetPNGSINTS_BJMPEIS(eStream);
000a38  e1a04403          LSL      r4,r3,#8
000a3c  e28444c1          ADD      r4,r4,#0xc1000000
000a40  e24449ff          SUB      r4,r4,#0x3fc000
000a44  e59440c8          LDR      r4,[r4,#0xc8]
000a48  e2044001          AND      r4,r4,#1
000a4c  e5c24000          STRB     r4,[r2,#0]
;;;568                    }
;;;569                    break;
000a50  ea0000ba          B        |L1.3392|
                  |L1.2644|
;;;570                case PNG_INT_UFMTEI:
000a54  e320f000          NOP      
;;;571                    {
;;;572                        *peIntStatus = (png_int_status_e)biGetPNGSINTS_UFMTEIS(eStream);
000a58  e1a04403          LSL      r4,r3,#8
000a5c  e28444c1          ADD      r4,r4,#0xc1000000
000a60  e24449ff          SUB      r4,r4,#0x3fc000
000a64  e59440c8          LDR      r4,[r4,#0xc8]
000a68  e7e040d4          UBFX     r4,r4,#1,#1
000a6c  e5c24000          STRB     r4,[r2,#0]
;;;573                    }
;;;574                    break;
000a70  ea0000b2          B        |L1.3392|
                  |L1.2676|
;;;575                case PNG_INT_OOCEI:
000a74  e320f000          NOP      
;;;576                    {
;;;577                        *peIntStatus = (png_int_status_e)biGetPNGSINTS_OOCEIS(eStream);
000a78  e1a04403          LSL      r4,r3,#8
000a7c  e28444c1          ADD      r4,r4,#0xc1000000
000a80  e24449ff          SUB      r4,r4,#0x3fc000
000a84  e59440c8          LDR      r4,[r4,#0xc8]
000a88  e7e04154          UBFX     r4,r4,#2,#1
000a8c  e5c24000          STRB     r4,[r2,#0]
;;;578                    }
;;;579                    break;
000a90  ea0000aa          B        |L1.3392|
                  |L1.2708|
;;;580                case PNG_INT_CHSEI:
000a94  e320f000          NOP      
;;;581                    {
;;;582                        *peIntStatus = (png_int_status_e)biGetPNGSINTS_CHSEIS(eStream);
000a98  e1a04403          LSL      r4,r3,#8
000a9c  e28444c1          ADD      r4,r4,#0xc1000000
000aa0  e24449ff          SUB      r4,r4,#0x3fc000
000aa4  e59440c8          LDR      r4,[r4,#0xc8]
000aa8  e7e041d4          UBFX     r4,r4,#3,#1
000aac  e5c24000          STRB     r4,[r2,#0]
;;;583                    }
;;;584                    break;
000ab0  ea0000a2          B        |L1.3392|
                  |L1.2740|
;;;585                case PNG_INT_EYEOSEI:
000ab4  e320f000          NOP      
;;;586                    {
;;;587                        *peIntStatus = (png_int_status_e)biGetPNGSINTS_EYEOSEIS(eStream);
000ab8  e1a04403          LSL      r4,r3,#8
000abc  e28444c1          ADD      r4,r4,#0xc1000000
000ac0  e24449ff          SUB      r4,r4,#0x3fc000
000ac4  e59440c8          LDR      r4,[r4,#0xc8]
000ac8  e7e04254          UBFX     r4,r4,#4,#1
000acc  e5c24000          STRB     r4,[r2,#0]
;;;588                    }
;;;589                    break;
000ad0  ea00009a          B        |L1.3392|
                  |L1.2772|
;;;590                case PNG_INT_NOEOSEI:
000ad4  e320f000          NOP      
;;;591                    {
;;;592                        *peIntStatus = (png_int_status_e)biGetPNGSINTS_NOEOSEIS(eStream);
000ad8  e1a04403          LSL      r4,r3,#8
000adc  e28444c1          ADD      r4,r4,#0xc1000000
000ae0  e24449ff          SUB      r4,r4,#0x3fc000
000ae4  e59440c8          LDR      r4,[r4,#0xc8]
000ae8  e7e042d4          UBFX     r4,r4,#5,#1
000aec  e5c24000          STRB     r4,[r2,#0]
;;;593                    }
;;;594                    break;
000af0  ea000092          B        |L1.3392|
                  |L1.2804|
;;;595                case PNG_INT_CMPEI:
000af4  e320f000          NOP      
;;;596                    {
;;;597                        *peIntStatus = (png_int_status_e)biGetPNGSINTS_CMPEIS(eStream);
000af8  e1a04403          LSL      r4,r3,#8
000afc  e28444c1          ADD      r4,r4,#0xc1000000
000b00  e24449ff          SUB      r4,r4,#0x3fc000
000b04  e59440c8          LDR      r4,[r4,#0xc8]
000b08  e7e04354          UBFX     r4,r4,#6,#1
000b0c  e5c24000          STRB     r4,[r2,#0]
;;;598                    }
;;;599                    break;
000b10  ea00008a          B        |L1.3392|
                  |L1.2836|
;;;600                case PNG_INT_BTYPEEI:
000b14  e320f000          NOP      
;;;601                    {
;;;602                        *peIntStatus = (png_int_status_e)biGetPNGSINTS_BTYPEEIS(eStream);
000b18  e1a04403          LSL      r4,r3,#8
000b1c  e28444c1          ADD      r4,r4,#0xc1000000
000b20  e24449ff          SUB      r4,r4,#0x3fc000
000b24  e59440c8          LDR      r4,[r4,#0xc8]
000b28  e7e043d4          UBFX     r4,r4,#7,#1
000b2c  e5c24000          STRB     r4,[r2,#0]
;;;603                    }
;;;604                    break;
000b30  ea000082          B        |L1.3392|
                  |L1.2868|
;;;605                case PNG_INT_DISTEI:
000b34  e320f000          NOP      
;;;606                    {
;;;607                        *peIntStatus = (png_int_status_e)biGetPNGSINTS_DISTEIS(eStream);
000b38  e1a04403          LSL      r4,r3,#8
000b3c  e28444c1          ADD      r4,r4,#0xc1000000
000b40  e24449ff          SUB      r4,r4,#0x3fc000
000b44  e59440c8          LDR      r4,[r4,#0xc8]
000b48  e7e04454          UBFX     r4,r4,#8,#1
000b4c  e5c24000          STRB     r4,[r2,#0]
;;;608                    }
;;;609                    break;
000b50  ea00007a          B        |L1.3392|
                  |L1.2900|
;;;610                case PNG_INT_NCBSEI:
000b54  e320f000          NOP      
;;;611                    {
;;;612                        *peIntStatus = (png_int_status_e)biGetPNGSINTS_NCBSEIS(eStream);
000b58  e1a04403          LSL      r4,r3,#8
000b5c  e28444c1          ADD      r4,r4,#0xc1000000
000b60  e24449ff          SUB      r4,r4,#0x3fc000
000b64  e59440c8          LDR      r4,[r4,#0xc8]
000b68  e7e044d4          UBFX     r4,r4,#9,#1
000b6c  e5c24000          STRB     r4,[r2,#0]
;;;613                    }
;;;614                    break;
000b70  ea000072          B        |L1.3392|
                  |L1.2932|
;;;615                case PNG_INT_DECEI:
000b74  e320f000          NOP      
;;;616                    {
;;;617                        *peIntStatus = (png_int_status_e)biGetPNGSINTS_DECEIS(eStream);
000b78  e1a04403          LSL      r4,r3,#8
000b7c  e28444c1          ADD      r4,r4,#0xc1000000
000b80  e24449ff          SUB      r4,r4,#0x3fc000
000b84  e59440c8          LDR      r4,[r4,#0xc8]
000b88  e7e04554          UBFX     r4,r4,#10,#1
000b8c  e5c24000          STRB     r4,[r2,#0]
;;;618                    }
;;;619                    break;
000b90  ea00006a          B        |L1.3392|
                  |L1.2964|
;;;620                case PNG_INT_FJMPWI:
000b94  e320f000          NOP      
;;;621                    {
;;;622                        *peIntStatus = (png_int_status_e)biGetPNGSINTS_FJMPWIS(eStream);
000b98  e1a04403          LSL      r4,r3,#8
000b9c  e28444c1          ADD      r4,r4,#0xc1000000
000ba0  e24449ff          SUB      r4,r4,#0x3fc000
000ba4  e59440c8          LDR      r4,[r4,#0xc8]
000ba8  e7e04854          UBFX     r4,r4,#16,#1
000bac  e5c24000          STRB     r4,[r2,#0]
;;;623                    }
;;;624                    break;
000bb0  ea000062          B        |L1.3392|
                  |L1.2996|
;;;625                case PNG_INT_UCHNKWI:
000bb4  e320f000          NOP      
;;;626                    {
;;;627                        *peIntStatus = (png_int_status_e)biGetPNGSINTS_UCHNKWIS(eStream);
000bb8  e1a04403          LSL      r4,r3,#8
000bbc  e28444c1          ADD      r4,r4,#0xc1000000
000bc0  e24449ff          SUB      r4,r4,#0x3fc000
000bc4  e59440c8          LDR      r4,[r4,#0xc8]
000bc8  e7e048d4          UBFX     r4,r4,#17,#1
000bcc  e5c24000          STRB     r4,[r2,#0]
;;;628                    }
;;;629                    break;
000bd0  ea00005a          B        |L1.3392|
                  |L1.3028|
;;;630                case PNG_INT_PDICTWI:
000bd4  e320f000          NOP      
;;;631                    {
;;;632                        *peIntStatus = (png_int_status_e)biGetPNGSINTS_PDICTWIS(eStream);
000bd8  e1a04403          LSL      r4,r3,#8
000bdc  e28444c1          ADD      r4,r4,#0xc1000000
000be0  e24449ff          SUB      r4,r4,#0x3fc000
000be4  e59440c8          LDR      r4,[r4,#0xc8]
000be8  e7e04954          UBFX     r4,r4,#18,#1
000bec  e5c24000          STRB     r4,[r2,#0]
;;;633                    }
;;;634                    break;
000bf0  ea000052          B        |L1.3392|
                  |L1.3060|
;;;635                case PNG_INT_ULLWI:
000bf4  e320f000          NOP      
;;;636                    {
;;;637                        *peIntStatus = (png_int_status_e)biGetPNGSINTS_ULLWIS(eStream);
000bf8  e1a04403          LSL      r4,r3,#8
000bfc  e28444c1          ADD      r4,r4,#0xc1000000
000c00  e24449ff          SUB      r4,r4,#0x3fc000
000c04  e59440c8          LDR      r4,[r4,#0xc8]
000c08  e7e049d4          UBFX     r4,r4,#19,#1
000c0c  e5c24000          STRB     r4,[r2,#0]
;;;638                    }
;;;639                    break;
000c10  ea00004a          B        |L1.3392|
                  |L1.3092|
;;;640                case PNG_INT_UDISTWI:
000c14  e320f000          NOP      
;;;641                    {
;;;642                        *peIntStatus = (png_int_status_e)biGetPNGSINTS_UDISTWIS(eStream);
000c18  e1a04403          LSL      r4,r3,#8
000c1c  e28444c1          ADD      r4,r4,#0xc1000000
000c20  e24449ff          SUB      r4,r4,#0x3fc000
000c24  e59440c8          LDR      r4,[r4,#0xc8]
000c28  e7e04a54          UBFX     r4,r4,#20,#1
000c2c  e5c24000          STRB     r4,[r2,#0]
;;;643                    }
;;;644                    break;
000c30  ea000042          B        |L1.3392|
                  |L1.3124|
;;;645                case PNG_INT_OFCWI:
000c34  e320f000          NOP      
;;;646                    {
;;;647                        *peIntStatus = (png_int_status_e)biGetPNGSINTS_OFCWIS(eStream);
000c38  e1a04403          LSL      r4,r3,#8
000c3c  e28444c1          ADD      r4,r4,#0xc1000000
000c40  e24449ff          SUB      r4,r4,#0x3fc000
000c44  e59440c8          LDR      r4,[r4,#0xc8]
000c48  e7e04ad4          UBFX     r4,r4,#21,#1
000c4c  e5c24000          STRB     r4,[r2,#0]
;;;648                    }
;;;649                    break;
000c50  ea00003a          B        |L1.3392|
                  |L1.3156|
;;;650                case PNG_INT_IHDRDI:
000c54  e320f000          NOP      
;;;651                    {
;;;652                        *peIntStatus = (png_int_status_e)biGetPNGSINTS_IHDRDIS(eStream);
000c58  e1a04403          LSL      r4,r3,#8
000c5c  e28444c1          ADD      r4,r4,#0xc1000000
000c60  e24449ff          SUB      r4,r4,#0x3fc000
000c64  e59440c8          LDR      r4,[r4,#0xc8]
000c68  e7e04c54          UBFX     r4,r4,#24,#1
000c6c  e5c24000          STRB     r4,[r2,#0]
;;;653                    }
;;;654                    break;
000c70  ea000032          B        |L1.3392|
                  |L1.3188|
;;;655                case PNG_INT_PLTEDI:
000c74  e320f000          NOP      
;;;656                    {
;;;657                        *peIntStatus = (png_int_status_e)biGetPNGSINTS_PLTEDIS(eStream);
000c78  e1a04403          LSL      r4,r3,#8
000c7c  e28444c1          ADD      r4,r4,#0xc1000000
000c80  e24449ff          SUB      r4,r4,#0x3fc000
000c84  e59440c8          LDR      r4,[r4,#0xc8]
000c88  e7e04cd4          UBFX     r4,r4,#25,#1
000c8c  e5c24000          STRB     r4,[r2,#0]
;;;658                    }
;;;659                    break;
000c90  ea00002a          B        |L1.3392|
                  |L1.3220|
;;;660                case PNG_INT_IDATDI:
000c94  e320f000          NOP      
;;;661                    {
;;;662                        *peIntStatus = (png_int_status_e)biGetPNGSINTS_IDATDIS(eStream);
000c98  e1a04403          LSL      r4,r3,#8
000c9c  e28444c1          ADD      r4,r4,#0xc1000000
000ca0  e24449ff          SUB      r4,r4,#0x3fc000
000ca4  e59440c8          LDR      r4,[r4,#0xc8]
000ca8  e7e04d54          UBFX     r4,r4,#26,#1
000cac  e5c24000          STRB     r4,[r2,#0]
;;;663                    }
;;;664                    break;
000cb0  ea000022          B        |L1.3392|
                  |L1.3252|
;;;665                case PNG_INT_IENDDI:
000cb4  e320f000          NOP      
;;;666                    {
;;;667                        *peIntStatus = (png_int_status_e)biGetPNGSINTS_IENDDIS(eStream);
000cb8  e1a04403          LSL      r4,r3,#8
000cbc  e28444c1          ADD      r4,r4,#0xc1000000
000cc0  e24449ff          SUB      r4,r4,#0x3fc000
000cc4  e59440c8          LDR      r4,[r4,#0xc8]
000cc8  e7e04dd4          UBFX     r4,r4,#27,#1
000ccc  e5c24000          STRB     r4,[r2,#0]
;;;668                    }
;;;669                    break;
000cd0  ea00001a          B        |L1.3392|
                  |L1.3284|
;;;670                case PNG_INT_DCDSI:
000cd4  e320f000          NOP      
;;;671                    {
;;;672                        *peIntStatus = (png_int_status_e)biGetPNGSINTS_DCDSIS(eStream);
000cd8  e1a04403          LSL      r4,r3,#8
000cdc  e28444c1          ADD      r4,r4,#0xc1000000
000ce0  e24449ff          SUB      r4,r4,#0x3fc000
000ce4  e59440c8          LDR      r4,[r4,#0xc8]
000ce8  e7e04e54          UBFX     r4,r4,#28,#1
000cec  e5c24000          STRB     r4,[r2,#0]
;;;673                    }
;;;674                    break;
000cf0  ea000012          B        |L1.3392|
                  |L1.3316|
;;;675                case PNG_INT_SIDLEI:
000cf4  e320f000          NOP      
;;;676                    {
;;;677                        *peIntStatus = (png_int_status_e)biGetPNGSINTS_SIDLEIS(eStream);
000cf8  e1a04403          LSL      r4,r3,#8
000cfc  e28444c1          ADD      r4,r4,#0xc1000000
000d00  e24449ff          SUB      r4,r4,#0x3fc000
000d04  e59440c8          LDR      r4,[r4,#0xc8]
000d08  e7e04ed4          UBFX     r4,r4,#29,#1
000d0c  e5c24000          STRB     r4,[r2,#0]
;;;678                    }
;;;679                    break;
000d10  ea00000a          B        |L1.3392|
                  |L1.3348|
;;;680                case PNG_INT_DSFFULLIE:
000d14  e320f000          NOP      
;;;681                    {
;;;682                        *peIntStatus = (png_int_status_e)biGetPNGSINTS_DSFFULLIS(eStream);
000d18  e1a04403          LSL      r4,r3,#8
000d1c  e28444c1          ADD      r4,r4,#0xc1000000
000d20  e24449ff          SUB      r4,r4,#0x3fc000
000d24  e59440c8          LDR      r4,[r4,#0xc8]
000d28  e7e04f54          UBFX     r4,r4,#30,#1
000d2c  e5c24000          STRB     r4,[r2,#0]
;;;683                    }
;;;684                    break;
000d30  ea000002          B        |L1.3392|
                  |L1.3380|
;;;685                default:
000d34  e320f000          NOP      
;;;686                    {
;;;687                        i32Res = C_FAILED;
000d38  e3e00000          MVN      r0,#0
;;;688                    }
;;;689                    break;
000d3c  e320f000          NOP      
                  |L1.3392|
000d40  ea000000          B        |L1.3400|
                  |L1.3396|
;;;690            }
;;;691        }
;;;692        else
;;;693        {
;;;694            i32Res = C_FAILED;
000d44  e3e00000          MVN      r0,#0
                  |L1.3400|
;;;695        }
;;;696    
;;;697        return i32Res;
;;;698    }
000d48  e8bd8010          POP      {r4,pc}
;;;699    
                          ENDP

                  u8PNG_GetGlobalInterruptStatusAll PROC
;;;701    
;;;702    uint8_t u8PNG_GetGlobalInterruptStatusAll(void)
000d4c  e59f01a4          LDR      r0,|L1.3832|
;;;703    {
;;;704        return u8GetPNGGINTSLL();
000d50  e5d0000c          LDRB     r0,[r0,#0xc]
;;;705    }
000d54  e12fff1e          BX       lr
;;;706    
                          ENDP

                  u32PNG_GetStreamInterruptStatusAll PROC
;;;708    
;;;709    uint32_t u32PNG_GetStreamInterruptStatusAll(png_stream_e eStream)
000d58  e1a01000          MOV      r1,r0
;;;710    {
;;;711        return u32GetPNGSINTS(eStream);
000d5c  e1a00401          LSL      r0,r1,#8
000d60  e28004c1          ADD      r0,r0,#0xc1000000
000d64  e24009ff          SUB      r0,r0,#0x3fc000
000d68  e59000c8          LDR      r0,[r0,#0xc8]
;;;712    }
000d6c  e12fff1e          BX       lr
;;;713    
                          ENDP

                  i32PNG_ClearGlobalInterruptSingle PROC
;;;715    
;;;716    int32_t i32PNG_ClearGlobalInterruptSingle(png_int_e eInt)
000d70  e1a01000          MOV      r1,r0
;;;717    {
;;;718        int32_t i32Res = C_SUCCESS;
000d74  e3a00000          MOV      r0,#0
;;;719    
;;;720        switch (eInt)
000d78  e3510007          CMP      r1,#7
000d7c  308ff101          ADDCC    pc,pc,r1,LSL #2
000d80  ea00003e          B        |L1.3712|
000d84  ea000005          B        |L1.3488|
000d88  ea00000c          B        |L1.3520|
000d8c  ea000013          B        |L1.3552|
000d90  ea00001a          B        |L1.3584|
000d94  ea000021          B        |L1.3616|
000d98  ea000028          B        |L1.3648|
000d9c  ea00002f          B        |L1.3680|
                  |L1.3488|
;;;721        {
;;;722            case PNG_INT_VSWAEI:
000da0  e320f000          NOP      
;;;723                {
;;;724                    vClrPNGGINTC_VSWAEIC();
000da4  e59f214c          LDR      r2,|L1.3832|
000da8  e5922010          LDR      r2,[r2,#0x10]
000dac  e3c22001          BIC      r2,r2,#1
000db0  e2822001          ADD      r2,r2,#1
000db4  e59f313c          LDR      r3,|L1.3832|
000db8  e5832010          STR      r2,[r3,#0x10]
;;;725                }
;;;726                break;
000dbc  ea000032          B        |L1.3724|
                  |L1.3520|
;;;727            case PNG_INT_VSUAEI:
000dc0  e320f000          NOP      
;;;728                {
;;;729                    vClrPNGGINTC_VSUAEIC();
000dc4  e59f212c          LDR      r2,|L1.3832|
000dc8  e5922010          LDR      r2,[r2,#0x10]
000dcc  e3c22002          BIC      r2,r2,#2
000dd0  e2822002          ADD      r2,r2,#2
000dd4  e59f311c          LDR      r3,|L1.3832|
000dd8  e5832010          STR      r2,[r3,#0x10]
;;;730                }
;;;731                break;
000ddc  ea00002a          B        |L1.3724|
                  |L1.3552|
;;;732            case PNG_INT_CW2ROEI:
000de0  e320f000          NOP      
;;;733                {
;;;734                    vClrPNGGINTC_CW2ROEIC();
000de4  e59f210c          LDR      r2,|L1.3832|
000de8  e5922010          LDR      r2,[r2,#0x10]
000dec  e3c22004          BIC      r2,r2,#4
000df0  e2822004          ADD      r2,r2,#4
000df4  e59f30fc          LDR      r3,|L1.3832|
000df8  e5832010          STR      r2,[r3,#0x10]
;;;735                }
;;;736                break;
000dfc  ea000022          B        |L1.3724|
                  |L1.3584|
;;;737            case PNG_INT_CRSVAEI:
000e00  e320f000          NOP      
;;;738                {
;;;739                    vClrPNGGINTC_CRSVAEIC();
000e04  e59f20ec          LDR      r2,|L1.3832|
000e08  e5922010          LDR      r2,[r2,#0x10]
000e0c  e3c22008          BIC      r2,r2,#8
000e10  e2822008          ADD      r2,r2,#8
000e14  e59f30dc          LDR      r3,|L1.3832|
000e18  e5832010          STR      r2,[r3,#0x10]
;;;740                }
;;;741                break;
000e1c  ea00001a          B        |L1.3724|
                  |L1.3616|
;;;742            case PNG_INT_CPEI:
000e20  e320f000          NOP      
;;;743                {
;;;744                    vClrPNGGINTC_CPEIC();
000e24  e59f20cc          LDR      r2,|L1.3832|
000e28  e5922010          LDR      r2,[r2,#0x10]
000e2c  e3c22010          BIC      r2,r2,#0x10
000e30  e2822010          ADD      r2,r2,#0x10
000e34  e59f30bc          LDR      r3,|L1.3832|
000e38  e5832010          STR      r2,[r3,#0x10]
;;;745                }
;;;746                break;
000e3c  ea000012          B        |L1.3724|
                  |L1.3648|
;;;747            case PNG_INT_SWBEI:
000e40  e320f000          NOP      
;;;748                {
;;;749                    vClrPNGGINTC_SWBEIC();
000e44  e59f20ac          LDR      r2,|L1.3832|
000e48  e5922010          LDR      r2,[r2,#0x10]
000e4c  e3c22020          BIC      r2,r2,#0x20
000e50  e2822020          ADD      r2,r2,#0x20
000e54  e59f309c          LDR      r3,|L1.3832|
000e58  e5832010          STR      r2,[r3,#0x10]
;;;750                }
;;;751                break;
000e5c  ea00000a          B        |L1.3724|
                  |L1.3680|
;;;752            case PNG_INT_SSBEI:
000e60  e320f000          NOP      
;;;753                {
;;;754                    vClrPNGGINTC_SSBEIC();
000e64  e59f208c          LDR      r2,|L1.3832|
000e68  e5922010          LDR      r2,[r2,#0x10]
000e6c  e3c22040          BIC      r2,r2,#0x40
000e70  e2822040          ADD      r2,r2,#0x40
000e74  e59f307c          LDR      r3,|L1.3832|
000e78  e5832010          STR      r2,[r3,#0x10]
;;;755                }
;;;756                break;
000e7c  ea000002          B        |L1.3724|
                  |L1.3712|
;;;757            default:
000e80  e320f000          NOP      
;;;758                {
;;;759                    i32Res = C_FAILED;
000e84  e3e00000          MVN      r0,#0
;;;760                }
;;;761                break;
000e88  e320f000          NOP      
                  |L1.3724|
000e8c  e320f000          NOP                            ;726
;;;762        }
;;;763    
;;;764        return i32Res;
;;;765    }
000e90  e12fff1e          BX       lr
                  |L1.3732|
                          DCD      au8LLDD_PNG_C_REVISION
                  |L1.3736|
                          DCD      au8LLDD_PNG_C_TAG
                  |L1.3740|
                          DCD      au8LLDD_PNG_H_REVISION
                  |L1.3744|
                          DCD      au8LLDD_PNG_H_TAG
                  |L1.3748|
                          DCD      au8LLDD_PNG_IO_H_REVISION
                  |L1.3752|
                          DCD      au8LLDD_PNG_IO_H_TAG
                  |L1.3756|
                          DCD      u8PNG_SWB_Buffer_Stream_0
                  |L1.3760|
                          DCD      u32SWBBufferStartAddress
                  |L1.3764|
                          DCD      u8PNG_SWB_Buffer_Stream_1
                  |L1.3768|
                          DCD      u8PNG_SWB_Buffer_Stream_2
                  |L1.3772|
                          DCD      u8PNG_SWB_Buffer_Stream_3
                  |L1.3776|
                          DCD      u8PNG_SWB_Buffer_Stream_4
                  |L1.3780|
                          DCD      u8PNG_SWB_Buffer_Stream_5
                  |L1.3784|
                          DCD      u8PNG_SWB_Buffer_Stream_6
                  |L1.3788|
                          DCD      u8PNG_SWB_Buffer_Stream_7
                  |L1.3792|
                          DCD      u8PNG_FSB_Buffer_Stream_0
                  |L1.3796|
                          DCD      u32FSBBufferStartAddress
                  |L1.3800|
                          DCD      u8PNG_FSB_Buffer_Stream_1
                  |L1.3804|
                          DCD      u8PNG_FSB_Buffer_Stream_2
                  |L1.3808|
                          DCD      u8PNG_FSB_Buffer_Stream_3
                  |L1.3812|
                          DCD      u8PNG_FSB_Buffer_Stream_4
                  |L1.3816|
                          DCD      u8PNG_FSB_Buffer_Stream_5
                  |L1.3820|
                          DCD      u8PNG_FSB_Buffer_Stream_6
                  |L1.3824|
                          DCD      u8PNG_FSB_Buffer_Stream_7
                  |L1.3828|
                          DCD      u32VirtualMemoryStartAddress
                  |L1.3832|
                          DCD      0xc0c04000
                          ENDP

                  i32PNG_ClearStreamInterruptSingle PROC
;;;767    
;;;768    int32_t i32PNG_ClearStreamInterruptSingle(png_stream_e eStream, png_int_e eInt)
000efc  e92d4010          PUSH     {r4,lr}
;;;769    {
000f00  e1a02000          MOV      r2,r0
;;;770        int32_t i32Res = C_SUCCESS;
000f04  e3a00000          MOV      r0,#0
;;;771    
;;;772        switch (eInt)
000f08  e2413007          SUB      r3,r1,#7
000f0c  e3530018          CMP      r3,#0x18
000f10  308ff103          ADDCC    pc,pc,r3,LSL #2
000f14  ea000137          B        |L1.5112|
000f18  ea000016          B        |L1.3960|
000f1c  ea000021          B        |L1.4008|
000f20  ea00002c          B        |L1.4056|
000f24  ea000037          B        |L1.4104|
000f28  ea000042          B        |L1.4152|
000f2c  ea00004d          B        |L1.4200|
000f30  ea000058          B        |L1.4248|
000f34  ea000063          B        |L1.4296|
000f38  ea00006e          B        |L1.4344|
000f3c  ea000079          B        |L1.4392|
000f40  ea000084          B        |L1.4440|
000f44  ea00008f          B        |L1.4488|
000f48  ea00009a          B        |L1.4536|
000f4c  ea0000a5          B        |L1.4584|
000f50  ea0000b0          B        |L1.4632|
000f54  ea0000bb          B        |L1.4680|
000f58  ea0000c6          B        |L1.4728|
000f5c  ea0000d1          B        |L1.4776|
000f60  ea0000dc          B        |L1.4824|
000f64  ea0000e7          B        |L1.4872|
000f68  ea0000f2          B        |L1.4920|
000f6c  ea0000fd          B        |L1.4968|
000f70  ea000108          B        |L1.5016|
000f74  ea000113          B        |L1.5064|
                  |L1.3960|
;;;773        {
;;;774            case PNG_INT_BJMPEI:
000f78  e320f000          NOP      
;;;775                {
;;;776                    vClrPNGSINTC_BJMPEIC(eStream);
000f7c  e1a03402          LSL      r3,r2,#8
000f80  e28334c1          ADD      r3,r3,#0xc1000000
000f84  e24339ff          SUB      r3,r3,#0x3fc000
000f88  e59330cc          LDR      r3,[r3,#0xcc]
000f8c  e3c33001          BIC      r3,r3,#1
000f90  e2833001          ADD      r3,r3,#1
000f94  e1a04402          LSL      r4,r2,#8
000f98  e28444c1          ADD      r4,r4,#0xc1000000
000f9c  e24449ff          SUB      r4,r4,#0x3fc000
000fa0  e58430cc          STR      r3,[r4,#0xcc]
;;;777                }
;;;778                break;
000fa4  ea000116          B        |L1.5124|
                  |L1.4008|
;;;779            case PNG_INT_UFMTEI:
000fa8  e320f000          NOP      
;;;780                {
;;;781                    vClrPNGSINTC_UFMTEIC(eStream);
000fac  e1a03402          LSL      r3,r2,#8
000fb0  e28334c1          ADD      r3,r3,#0xc1000000
000fb4  e24339ff          SUB      r3,r3,#0x3fc000
000fb8  e59330cc          LDR      r3,[r3,#0xcc]
000fbc  e3c33002          BIC      r3,r3,#2
000fc0  e2833002          ADD      r3,r3,#2
000fc4  e1a04402          LSL      r4,r2,#8
000fc8  e28444c1          ADD      r4,r4,#0xc1000000
000fcc  e24449ff          SUB      r4,r4,#0x3fc000
000fd0  e58430cc          STR      r3,[r4,#0xcc]
;;;782                }
;;;783                break;
000fd4  ea00010a          B        |L1.5124|
                  |L1.4056|
;;;784            case PNG_INT_OOCEI:
000fd8  e320f000          NOP      
;;;785                {
;;;786                    vClrPNGSINTC_OOCEIC(eStream);
000fdc  e1a03402          LSL      r3,r2,#8
000fe0  e28334c1          ADD      r3,r3,#0xc1000000
000fe4  e24339ff          SUB      r3,r3,#0x3fc000
000fe8  e59330cc          LDR      r3,[r3,#0xcc]
000fec  e3c33004          BIC      r3,r3,#4
000ff0  e2833004          ADD      r3,r3,#4
000ff4  e1a04402          LSL      r4,r2,#8
000ff8  e28444c1          ADD      r4,r4,#0xc1000000
000ffc  e24449ff          SUB      r4,r4,#0x3fc000
001000  e58430cc          STR      r3,[r4,#0xcc]
;;;787                }
;;;788                break;
001004  ea0000fe          B        |L1.5124|
                  |L1.4104|
;;;789            case PNG_INT_CHSEI:
001008  e320f000          NOP      
;;;790                {
;;;791                    vClrPNGSINTC_CHSEIC(eStream);
00100c  e1a03402          LSL      r3,r2,#8
001010  e28334c1          ADD      r3,r3,#0xc1000000
001014  e24339ff          SUB      r3,r3,#0x3fc000
001018  e59330cc          LDR      r3,[r3,#0xcc]
00101c  e3c33008          BIC      r3,r3,#8
001020  e2833008          ADD      r3,r3,#8
001024  e1a04402          LSL      r4,r2,#8
001028  e28444c1          ADD      r4,r4,#0xc1000000
00102c  e24449ff          SUB      r4,r4,#0x3fc000
001030  e58430cc          STR      r3,[r4,#0xcc]
;;;792                }
;;;793                break;
001034  ea0000f2          B        |L1.5124|
                  |L1.4152|
;;;794            case PNG_INT_EYEOSEI:
001038  e320f000          NOP      
;;;795                {
;;;796                    vClrPNGSINTC_EYEOSEIC(eStream);
00103c  e1a03402          LSL      r3,r2,#8
001040  e28334c1          ADD      r3,r3,#0xc1000000
001044  e24339ff          SUB      r3,r3,#0x3fc000
001048  e59330cc          LDR      r3,[r3,#0xcc]
00104c  e3c33010          BIC      r3,r3,#0x10
001050  e2833010          ADD      r3,r3,#0x10
001054  e1a04402          LSL      r4,r2,#8
001058  e28444c1          ADD      r4,r4,#0xc1000000
00105c  e24449ff          SUB      r4,r4,#0x3fc000
001060  e58430cc          STR      r3,[r4,#0xcc]
;;;797                }
;;;798                break;
001064  ea0000e6          B        |L1.5124|
                  |L1.4200|
;;;799            case PNG_INT_NOEOSEI:
001068  e320f000          NOP      
;;;800                {
;;;801                    vClrPNGSINTC_NOEOSEIC(eStream);
00106c  e1a03402          LSL      r3,r2,#8
001070  e28334c1          ADD      r3,r3,#0xc1000000
001074  e24339ff          SUB      r3,r3,#0x3fc000
001078  e59330cc          LDR      r3,[r3,#0xcc]
00107c  e3c33020          BIC      r3,r3,#0x20
001080  e2833020          ADD      r3,r3,#0x20
001084  e1a04402          LSL      r4,r2,#8
001088  e28444c1          ADD      r4,r4,#0xc1000000
00108c  e24449ff          SUB      r4,r4,#0x3fc000
001090  e58430cc          STR      r3,[r4,#0xcc]
;;;802                }
;;;803                break;
001094  ea0000da          B        |L1.5124|
                  |L1.4248|
;;;804            case PNG_INT_CMPEI:
001098  e320f000          NOP      
;;;805                {
;;;806                    vClrPNGSINTC_CMPEIC(eStream);
00109c  e1a03402          LSL      r3,r2,#8
0010a0  e28334c1          ADD      r3,r3,#0xc1000000
0010a4  e24339ff          SUB      r3,r3,#0x3fc000
0010a8  e59330cc          LDR      r3,[r3,#0xcc]
0010ac  e3c33040          BIC      r3,r3,#0x40
0010b0  e2833040          ADD      r3,r3,#0x40
0010b4  e1a04402          LSL      r4,r2,#8
0010b8  e28444c1          ADD      r4,r4,#0xc1000000
0010bc  e24449ff          SUB      r4,r4,#0x3fc000
0010c0  e58430cc          STR      r3,[r4,#0xcc]
;;;807                }
;;;808                break;
0010c4  ea0000ce          B        |L1.5124|
                  |L1.4296|
;;;809            case PNG_INT_BTYPEEI:
0010c8  e320f000          NOP      
;;;810                {
;;;811                    vClrPNGSINTC_BTYPEEIC(eStream);
0010cc  e1a03402          LSL      r3,r2,#8
0010d0  e28334c1          ADD      r3,r3,#0xc1000000
0010d4  e24339ff          SUB      r3,r3,#0x3fc000
0010d8  e59330cc          LDR      r3,[r3,#0xcc]
0010dc  e3c33080          BIC      r3,r3,#0x80
0010e0  e2833080          ADD      r3,r3,#0x80
0010e4  e1a04402          LSL      r4,r2,#8
0010e8  e28444c1          ADD      r4,r4,#0xc1000000
0010ec  e24449ff          SUB      r4,r4,#0x3fc000
0010f0  e58430cc          STR      r3,[r4,#0xcc]
;;;812                }
;;;813                break;
0010f4  ea0000c2          B        |L1.5124|
                  |L1.4344|
;;;814            case PNG_INT_DISTEI:
0010f8  e320f000          NOP      
;;;815                {
;;;816                    vClrPNGSINTC_DISTEIC(eStream);
0010fc  e1a03402          LSL      r3,r2,#8
001100  e28334c1          ADD      r3,r3,#0xc1000000
001104  e24339ff          SUB      r3,r3,#0x3fc000
001108  e59330cc          LDR      r3,[r3,#0xcc]
00110c  e3c33c01          BIC      r3,r3,#0x100
001110  e2833c01          ADD      r3,r3,#0x100
001114  e1a04402          LSL      r4,r2,#8
001118  e28444c1          ADD      r4,r4,#0xc1000000
00111c  e24449ff          SUB      r4,r4,#0x3fc000
001120  e58430cc          STR      r3,[r4,#0xcc]
;;;817                }
;;;818                break;
001124  ea0000b6          B        |L1.5124|
                  |L1.4392|
;;;819            case PNG_INT_NCBSEI:
001128  e320f000          NOP      
;;;820                {
;;;821                    vClrPNGSINTC_NCBSEIC(eStream);
00112c  e1a03402          LSL      r3,r2,#8
001130  e28334c1          ADD      r3,r3,#0xc1000000
001134  e24339ff          SUB      r3,r3,#0x3fc000
001138  e59330cc          LDR      r3,[r3,#0xcc]
00113c  e3c33c02          BIC      r3,r3,#0x200
001140  e2833c02          ADD      r3,r3,#0x200
001144  e1a04402          LSL      r4,r2,#8
001148  e28444c1          ADD      r4,r4,#0xc1000000
00114c  e24449ff          SUB      r4,r4,#0x3fc000
001150  e58430cc          STR      r3,[r4,#0xcc]
;;;822                }
;;;823                break;
001154  ea0000aa          B        |L1.5124|
                  |L1.4440|
;;;824            case PNG_INT_DECEI:
001158  e320f000          NOP      
;;;825                {
;;;826                    vClrPNGSINTC_DECEIC(eStream);
00115c  e1a03402          LSL      r3,r2,#8
001160  e28334c1          ADD      r3,r3,#0xc1000000
001164  e24339ff          SUB      r3,r3,#0x3fc000
001168  e59330cc          LDR      r3,[r3,#0xcc]
00116c  e3c33b01          BIC      r3,r3,#0x400
001170  e2833b01          ADD      r3,r3,#0x400
001174  e1a04402          LSL      r4,r2,#8
001178  e28444c1          ADD      r4,r4,#0xc1000000
00117c  e24449ff          SUB      r4,r4,#0x3fc000
001180  e58430cc          STR      r3,[r4,#0xcc]
;;;827                }
;;;828                break;
001184  ea00009e          B        |L1.5124|
                  |L1.4488|
;;;829            case PNG_INT_FJMPWI:
001188  e320f000          NOP      
;;;830                {
;;;831                    vClrPNGSINTC_FJMPWIC(eStream);
00118c  e1a03402          LSL      r3,r2,#8
001190  e28334c1          ADD      r3,r3,#0xc1000000
001194  e24339ff          SUB      r3,r3,#0x3fc000
001198  e59330cc          LDR      r3,[r3,#0xcc]
00119c  e3c33801          BIC      r3,r3,#0x10000
0011a0  e2833801          ADD      r3,r3,#0x10000
0011a4  e1a04402          LSL      r4,r2,#8
0011a8  e28444c1          ADD      r4,r4,#0xc1000000
0011ac  e24449ff          SUB      r4,r4,#0x3fc000
0011b0  e58430cc          STR      r3,[r4,#0xcc]
;;;832                }
;;;833                break;
0011b4  ea000092          B        |L1.5124|
                  |L1.4536|
;;;834            case PNG_INT_UCHNKWI:
0011b8  e320f000          NOP      
;;;835                {
;;;836                    vClrPNGSINTC_UCHNKWIC(eStream);
0011bc  e1a03402          LSL      r3,r2,#8
0011c0  e28334c1          ADD      r3,r3,#0xc1000000
0011c4  e24339ff          SUB      r3,r3,#0x3fc000
0011c8  e59330cc          LDR      r3,[r3,#0xcc]
0011cc  e3c33802          BIC      r3,r3,#0x20000
0011d0  e2833802          ADD      r3,r3,#0x20000
0011d4  e1a04402          LSL      r4,r2,#8
0011d8  e28444c1          ADD      r4,r4,#0xc1000000
0011dc  e24449ff          SUB      r4,r4,#0x3fc000
0011e0  e58430cc          STR      r3,[r4,#0xcc]
;;;837                }
;;;838                break;
0011e4  ea000086          B        |L1.5124|
                  |L1.4584|
;;;839            case PNG_INT_PDICTWI:
0011e8  e320f000          NOP      
;;;840                {
;;;841                    vClrPNGSINTC_PDICTWIC(eStream);
0011ec  e1a03402          LSL      r3,r2,#8
0011f0  e28334c1          ADD      r3,r3,#0xc1000000
0011f4  e24339ff          SUB      r3,r3,#0x3fc000
0011f8  e59330cc          LDR      r3,[r3,#0xcc]
0011fc  e3c33701          BIC      r3,r3,#0x40000
001200  e2833701          ADD      r3,r3,#0x40000
001204  e1a04402          LSL      r4,r2,#8
001208  e28444c1          ADD      r4,r4,#0xc1000000
00120c  e24449ff          SUB      r4,r4,#0x3fc000
001210  e58430cc          STR      r3,[r4,#0xcc]
;;;842                }
;;;843                break;
001214  ea00007a          B        |L1.5124|
                  |L1.4632|
;;;844            case PNG_INT_ULLWI:
001218  e320f000          NOP      
;;;845                {
;;;846                    vClrPNGSINTC_ULLWIC(eStream);
00121c  e1a03402          LSL      r3,r2,#8
001220  e28334c1          ADD      r3,r3,#0xc1000000
001224  e24339ff          SUB      r3,r3,#0x3fc000
001228  e59330cc          LDR      r3,[r3,#0xcc]
00122c  e3c33702          BIC      r3,r3,#0x80000
001230  e2833702          ADD      r3,r3,#0x80000
001234  e1a04402          LSL      r4,r2,#8
001238  e28444c1          ADD      r4,r4,#0xc1000000
00123c  e24449ff          SUB      r4,r4,#0x3fc000
001240  e58430cc          STR      r3,[r4,#0xcc]
;;;847                }
;;;848                break;
001244  ea00006e          B        |L1.5124|
                  |L1.4680|
;;;849            case PNG_INT_UDISTWI:
001248  e320f000          NOP      
;;;850                {
;;;851                    vClrPNGSINTC_UDISTWIC(eStream);
00124c  e1a03402          LSL      r3,r2,#8
001250  e28334c1          ADD      r3,r3,#0xc1000000
001254  e24339ff          SUB      r3,r3,#0x3fc000
001258  e59330cc          LDR      r3,[r3,#0xcc]
00125c  e3c33601          BIC      r3,r3,#0x100000
001260  e2833601          ADD      r3,r3,#0x100000
001264  e1a04402          LSL      r4,r2,#8
001268  e28444c1          ADD      r4,r4,#0xc1000000
00126c  e24449ff          SUB      r4,r4,#0x3fc000
001270  e58430cc          STR      r3,[r4,#0xcc]
;;;852                }
;;;853                break;
001274  ea000062          B        |L1.5124|
                  |L1.4728|
;;;854            case PNG_INT_OFCWI:
001278  e320f000          NOP      
;;;855                {
;;;856                    vClrPNGSINTC_OFCWIC(eStream);
00127c  e1a03402          LSL      r3,r2,#8
001280  e28334c1          ADD      r3,r3,#0xc1000000
001284  e24339ff          SUB      r3,r3,#0x3fc000
001288  e59330cc          LDR      r3,[r3,#0xcc]
00128c  e3c33602          BIC      r3,r3,#0x200000
001290  e2833602          ADD      r3,r3,#0x200000
001294  e1a04402          LSL      r4,r2,#8
001298  e28444c1          ADD      r4,r4,#0xc1000000
00129c  e24449ff          SUB      r4,r4,#0x3fc000
0012a0  e58430cc          STR      r3,[r4,#0xcc]
;;;857                }
;;;858                break;
0012a4  ea000056          B        |L1.5124|
                  |L1.4776|
;;;859            case PNG_INT_IHDRDI:
0012a8  e320f000          NOP      
;;;860                {
;;;861                    vClrPNGSINTC_IHDRDIC(eStream);
0012ac  e1a03402          LSL      r3,r2,#8
0012b0  e28334c1          ADD      r3,r3,#0xc1000000
0012b4  e24339ff          SUB      r3,r3,#0x3fc000
0012b8  e59330cc          LDR      r3,[r3,#0xcc]
0012bc  e3c33401          BIC      r3,r3,#0x1000000
0012c0  e2833401          ADD      r3,r3,#0x1000000
0012c4  e1a04402          LSL      r4,r2,#8
0012c8  e28444c1          ADD      r4,r4,#0xc1000000
0012cc  e24449ff          SUB      r4,r4,#0x3fc000
0012d0  e58430cc          STR      r3,[r4,#0xcc]
;;;862                }
;;;863                break;
0012d4  ea00004a          B        |L1.5124|
                  |L1.4824|
;;;864            case PNG_INT_PLTEDI:
0012d8  e320f000          NOP      
;;;865                {
;;;866                    vClrPNGSINTC_PLTEDIC(eStream);
0012dc  e1a03402          LSL      r3,r2,#8
0012e0  e28334c1          ADD      r3,r3,#0xc1000000
0012e4  e24339ff          SUB      r3,r3,#0x3fc000
0012e8  e59330cc          LDR      r3,[r3,#0xcc]
0012ec  e3c33402          BIC      r3,r3,#0x2000000
0012f0  e2833402          ADD      r3,r3,#0x2000000
0012f4  e1a04402          LSL      r4,r2,#8
0012f8  e28444c1          ADD      r4,r4,#0xc1000000
0012fc  e24449ff          SUB      r4,r4,#0x3fc000
001300  e58430cc          STR      r3,[r4,#0xcc]
;;;867                }
;;;868                break;
001304  ea00003e          B        |L1.5124|
                  |L1.4872|
;;;869            case PNG_INT_IDATDI:
001308  e320f000          NOP      
;;;870                {
;;;871                    vClrPNGSINTC_IDATDIC(eStream);
00130c  e1a03402          LSL      r3,r2,#8
001310  e28334c1          ADD      r3,r3,#0xc1000000
001314  e24339ff          SUB      r3,r3,#0x3fc000
001318  e59330cc          LDR      r3,[r3,#0xcc]
00131c  e3c33301          BIC      r3,r3,#0x4000000
001320  e2833301          ADD      r3,r3,#0x4000000
001324  e1a04402          LSL      r4,r2,#8
001328  e28444c1          ADD      r4,r4,#0xc1000000
00132c  e24449ff          SUB      r4,r4,#0x3fc000
001330  e58430cc          STR      r3,[r4,#0xcc]
;;;872                }
;;;873                break;
001334  ea000032          B        |L1.5124|
                  |L1.4920|
;;;874            case PNG_INT_IENDDI:
001338  e320f000          NOP      
;;;875                {
;;;876                    vClrPNGSINTC_IENDDIC(eStream);
00133c  e1a03402          LSL      r3,r2,#8
001340  e28334c1          ADD      r3,r3,#0xc1000000
001344  e24339ff          SUB      r3,r3,#0x3fc000
001348  e59330cc          LDR      r3,[r3,#0xcc]
00134c  e3c33302          BIC      r3,r3,#0x8000000
001350  e2833302          ADD      r3,r3,#0x8000000
001354  e1a04402          LSL      r4,r2,#8
001358  e28444c1          ADD      r4,r4,#0xc1000000
00135c  e24449ff          SUB      r4,r4,#0x3fc000
001360  e58430cc          STR      r3,[r4,#0xcc]
;;;877                }
;;;878                break;
001364  ea000026          B        |L1.5124|
                  |L1.4968|
;;;879            case PNG_INT_DCDSI:
001368  e320f000          NOP      
;;;880                {
;;;881                    vClrPNGSINTC_DCDSIC(eStream);
00136c  e1a03402          LSL      r3,r2,#8
001370  e28334c1          ADD      r3,r3,#0xc1000000
001374  e24339ff          SUB      r3,r3,#0x3fc000
001378  e59330cc          LDR      r3,[r3,#0xcc]
00137c  e3c33201          BIC      r3,r3,#0x10000000
001380  e2833201          ADD      r3,r3,#0x10000000
001384  e1a04402          LSL      r4,r2,#8
001388  e28444c1          ADD      r4,r4,#0xc1000000
00138c  e24449ff          SUB      r4,r4,#0x3fc000
001390  e58430cc          STR      r3,[r4,#0xcc]
;;;882                }
;;;883                break;
001394  ea00001a          B        |L1.5124|
                  |L1.5016|
;;;884            case PNG_INT_SIDLEI:
001398  e320f000          NOP      
;;;885                {
;;;886                    vClrPNGSINTC_SIDLEIC(eStream);
00139c  e1a03402          LSL      r3,r2,#8
0013a0  e28334c1          ADD      r3,r3,#0xc1000000
0013a4  e24339ff          SUB      r3,r3,#0x3fc000
0013a8  e59330cc          LDR      r3,[r3,#0xcc]
0013ac  e3c33202          BIC      r3,r3,#0x20000000
0013b0  e2833202          ADD      r3,r3,#0x20000000
0013b4  e1a04402          LSL      r4,r2,#8
0013b8  e28444c1          ADD      r4,r4,#0xc1000000
0013bc  e24449ff          SUB      r4,r4,#0x3fc000
0013c0  e58430cc          STR      r3,[r4,#0xcc]
;;;887                }
;;;888                break;
0013c4  ea00000e          B        |L1.5124|
                  |L1.5064|
;;;889            case PNG_INT_DSFFULLIE:
0013c8  e320f000          NOP      
;;;890                {
;;;891                    vClrPNGSINTC_DSFFULLIC(eStream);
0013cc  e1a03402          LSL      r3,r2,#8
0013d0  e28334c1          ADD      r3,r3,#0xc1000000
0013d4  e24339ff          SUB      r3,r3,#0x3fc000
0013d8  e59330cc          LDR      r3,[r3,#0xcc]
0013dc  e3c33101          BIC      r3,r3,#0x40000000
0013e0  e2833101          ADD      r3,r3,#0x40000000
0013e4  e1a04402          LSL      r4,r2,#8
0013e8  e28444c1          ADD      r4,r4,#0xc1000000
0013ec  e24449ff          SUB      r4,r4,#0x3fc000
0013f0  e58430cc          STR      r3,[r4,#0xcc]
;;;892                }
;;;893                break;
0013f4  ea000002          B        |L1.5124|
                  |L1.5112|
;;;894            default:
0013f8  e320f000          NOP      
;;;895                {
;;;896                    i32Res = C_FAILED;
0013fc  e3e00000          MVN      r0,#0
;;;897                }
;;;898                break;
001400  e320f000          NOP      
                  |L1.5124|
001404  e320f000          NOP                            ;778
;;;899        }
;;;900    
;;;901        return i32Res;
;;;902    }
001408  e8bd8010          POP      {r4,pc}
;;;903    
                          ENDP

                  vPNG_ClearGlobalInterruptAll PROC
;;;905    
;;;906    void vPNG_ClearGlobalInterruptAll(void)
00140c  e3a0007f          MOV      r0,#0x7f
;;;907    {
;;;908        vSetPNGGINTCLL(PNG_GLOBAL_ALLINTR_MASK);
001410  e51f1520          LDR      r1,|L1.3832|
001414  e5c10010          STRB     r0,[r1,#0x10]
;;;909    }
001418  e12fff1e          BX       lr
;;;910    
                          ENDP

                  vPNG_ClearStreamInterruptAll PROC
;;;912    
;;;913    void vPNG_ClearStreamInterruptAll(png_stream_e eStream)
00141c  e3e01000          MVN      r1,#0
;;;914    {
;;;915        vSetPNGSINTC(eStream, PNG_STREAM_ALLINTR_MASK);
001420  e1a02400          LSL      r2,r0,#8
001424  e28224c1          ADD      r2,r2,#0xc1000000
001428  e24229ff          SUB      r2,r2,#0x3fc000
00142c  e58210cc          STR      r1,[r2,#0xcc]
;;;916    }
001430  e12fff1e          BX       lr
;;;917    
                          ENDP

                  vPNG_ResetStream PROC
;;;918    /****************************************************************************/
;;;919    void vPNG_ResetStream(png_stream_e eStream)
001434  e1a01400          LSL      r1,r0,#8
;;;920    {
;;;921        vSetPNGSCTRL_SRST(eStream);
001438  e28114c1          ADD      r1,r1,#0xc1000000
00143c  e24119ff          SUB      r1,r1,#0x3fc000
001440  e5911080          LDR      r1,[r1,#0x80]
001444  e3c11002          BIC      r1,r1,#2
001448  e2811002          ADD      r1,r1,#2
00144c  e1a02400          LSL      r2,r0,#8
001450  e28224c1          ADD      r2,r2,#0xc1000000
001454  e24229ff          SUB      r2,r2,#0x3fc000
001458  e5821080          STR      r1,[r2,#0x80]
;;;922    }
00145c  e12fff1e          BX       lr
;;;923    
                          ENDP

                  boPNG_GetBusError PROC
;;;924    /****************************************************************************/
;;;925    bool_t boPNG_GetBusError(png_bus_error_type_e eErrType, png_bus_error_st *pstBussError)
001460  e1a02000          MOV      r2,r0
;;;926    {
;;;927        bool_t boResult = C_TRUE;
001464  e3a00001          MOV      r0,#1
;;;928    
;;;929        if ((0x00 == pstBussError) || (eErrType > PNG_SOURCE_STREAM_ERR))
001468  e3510000          CMP      r1,#0
00146c  0a000001          BEQ      |L1.5240|
001470  e3520001          CMP      r2,#1
001474  da000001          BLE      |L1.5248|
                  |L1.5240|
;;;930        {
;;;931            boResult = C_FALSE;
001478  e3a00000          MOV      r0,#0
00147c  ea000040          B        |L1.5508|
                  |L1.5248|
;;;932        }
;;;933        else
;;;934        {
;;;935            if (PNG_SLIDING_WINDOW_ERR == eErrType)
001480  e3520000          CMP      r2,#0
001484  1a00001f          BNE      |L1.5384|
;;;936            {
;;;937                pstBussError->u32ErrAddress = (uint32_t)            biGetPNGSWBEA_ADDR();
001488  e51f3598          LDR      r3,|L1.3832|
00148c  e5933014          LDR      r3,[r3,#0x14]
001490  e5813000          STR      r3,[r1,#0]
;;;938                pstBussError->eRWdir        = (png_transfer_type_e) biGetPNGSWBEC_WR();
001494  e51f35a4          LDR      r3,|L1.3832|
001498  e5933018          LDR      r3,[r3,#0x18]
00149c  e2033001          AND      r3,r3,#1
0014a0  e5c13004          STRB     r3,[r1,#4]
;;;939                pstBussError->eBurstType    = (png_burst_type_e)    biGetPNGSWBEC_BTYPE();
0014a4  e51f35b4          LDR      r3,|L1.3832|
0014a8  e5933018          LDR      r3,[r3,#0x18]
0014ac  e7e030d3          UBFX     r3,r3,#1,#1
0014b0  e5c13005          STRB     r3,[r1,#5]
;;;940                pstBussError->eBurstSize    = (png_burst_size_e)    biGetPNGSWBEC_BSIZE();
0014b4  e51f35c4          LDR      r3,|L1.3832|
0014b8  e5933018          LDR      r3,[r3,#0x18]
0014bc  e7e23153          UBFX     r3,r3,#2,#3
0014c0  e5c13006          STRB     r3,[r1,#6]
;;;941                pstBussError->eRespType     = (png_response_type_e) biGetPNGSWBEC_RTYPE();
0014c4  e51f35d4          LDR      r3,|L1.3832|
0014c8  e5933018          LDR      r3,[r3,#0x18]
0014cc  e7e132d3          UBFX     r3,r3,#5,#2
0014d0  e5c13007          STRB     r3,[r1,#7]
;;;942                pstBussError->eByteEnable   = (png_enable_e)        biGetPNGSWBEC_BEN();
0014d4  e51f35e4          LDR      r3,|L1.3832|
0014d8  e5933018          LDR      r3,[r3,#0x18]
0014dc  e1a03423          LSR      r3,r3,#8
0014e0  e5c13008          STRB     r3,[r1,#8]
;;;943                pstBussError->u8ID          = (uint8_t)             biGetPNGSWBEC_ID();
0014e4  e51f35f4          LDR      r3,|L1.3832|
0014e8  e5933018          LDR      r3,[r3,#0x18]
0014ec  e7e33853          UBFX     r3,r3,#16,#4
0014f0  e5c13009          STRB     r3,[r1,#9]
;;;944                pstBussError->u8BurstLen    = (uint8_t)             biGetPNGSWBEC_LEN();
0014f4  e51f3604          LDR      r3,|L1.3832|
0014f8  e5933018          LDR      r3,[r3,#0x18]
0014fc  e7e33a53          UBFX     r3,r3,#20,#4
001500  e5c1300a          STRB     r3,[r1,#0xa]
001504  ea00001e          B        |L1.5508|
                  |L1.5384|
;;;945            }
;;;946            else
;;;947            {
;;;948                pstBussError->u32ErrAddress = (uint32_t)            biGetPNGSSBEA_ADDR();
001508  e51f3618          LDR      r3,|L1.3832|
00150c  e593301c          LDR      r3,[r3,#0x1c]
001510  e5813000          STR      r3,[r1,#0]
;;;949                pstBussError->eRWdir        = (png_transfer_type_e) biGetPNGSSBEC_WR();
001514  e51f3624          LDR      r3,|L1.3832|
001518  e5933020          LDR      r3,[r3,#0x20]
00151c  e2033001          AND      r3,r3,#1
001520  e5c13004          STRB     r3,[r1,#4]
;;;950                pstBussError->eBurstType    = (png_burst_type_e)    biGetPNGSSBEC_BTYPE();
001524  e51f3634          LDR      r3,|L1.3832|
001528  e5933020          LDR      r3,[r3,#0x20]
00152c  e7e030d3          UBFX     r3,r3,#1,#1
001530  e5c13005          STRB     r3,[r1,#5]
;;;951                pstBussError->eBurstSize    = (png_burst_size_e)    biGetPNGSSBEC_BSIZE();
001534  e51f3644          LDR      r3,|L1.3832|
001538  e5933020          LDR      r3,[r3,#0x20]
00153c  e7e23153          UBFX     r3,r3,#2,#3
001540  e5c13006          STRB     r3,[r1,#6]
;;;952                pstBussError->eRespType     = (png_response_type_e) biGetPNGSSBEC_RTYPE();
001544  e51f3654          LDR      r3,|L1.3832|
001548  e5933020          LDR      r3,[r3,#0x20]
00154c  e7e132d3          UBFX     r3,r3,#5,#2
001550  e5c13007          STRB     r3,[r1,#7]
;;;953                pstBussError->eByteEnable   = (png_enable_e)        biGetPNGSSBEC_BEN();
001554  e51f3664          LDR      r3,|L1.3832|
001558  e5933020          LDR      r3,[r3,#0x20]
00155c  e1a03423          LSR      r3,r3,#8
001560  e5c13008          STRB     r3,[r1,#8]
;;;954                pstBussError->u8ID          = (uint8_t)             biGetPNGSSBEC_ID();
001564  e51f3674          LDR      r3,|L1.3832|
001568  e5933020          LDR      r3,[r3,#0x20]
00156c  e7e33853          UBFX     r3,r3,#16,#4
001570  e5c13009          STRB     r3,[r1,#9]
;;;955                pstBussError->u8BurstLen    = (uint8_t)             biGetPNGSSBEC_LEN();
001574  e51f3684          LDR      r3,|L1.3832|
001578  e5933020          LDR      r3,[r3,#0x20]
00157c  e7e33a53          UBFX     r3,r3,#20,#4
001580  e5c1300a          STRB     r3,[r1,#0xa]
                  |L1.5508|
;;;956            }
;;;957        }
;;;958        return boResult;
;;;959    }
001584  e12fff1e          BX       lr
;;;960    
                          ENDP

                  ePNG_GetStreamPhaseStatus PROC
;;;961    /****************************************************************************/
;;;962    png_phase_status_e ePNG_GetStreamPhaseStatus (png_stream_e eStream)
001588  e1a01000          MOV      r1,r0
;;;963    {
;;;964        return ((png_phase_status_e)biGetPNGSSTAT_PHASE(eStream));
00158c  e1a00401          LSL      r0,r1,#8
001590  e28004c1          ADD      r0,r0,#0xc1000000
001594  e24009ff          SUB      r0,r0,#0x3fc000
001598  e5900088          LDR      r0,[r0,#0x88]
00159c  e2000001          AND      r0,r0,#1
;;;965    }
0015a0  e12fff1e          BX       lr
;;;966    
                          ENDP

                  boPNG_GetStreamStatus PROC
;;;967    /****************************************************************************/
;;;968    bool_t boPNG_GetStreamStatus (png_stream_e eStream, png_stream_status_st *pstStreamStatus)
0015a4  e1a02000          MOV      r2,r0
;;;969    {
;;;970        bool_t boResult = C_TRUE;
0015a8  e3a00001          MOV      r0,#1
;;;971    
;;;972        if ( (0x00 == pstStreamStatus) || (eStream > PNG_STREAM_7) )
0015ac  e3510000          CMP      r1,#0
0015b0  0a000001          BEQ      |L1.5564|
0015b4  e3520007          CMP      r2,#7
0015b8  da000001          BLE      |L1.5572|
                  |L1.5564|
;;;973        {
;;;974            boResult = C_FALSE;
0015bc  e3a00000          MOV      r0,#0
0015c0  ea00001d          B        |L1.5692|
                  |L1.5572|
;;;975        }
;;;976        else
;;;977        {
;;;978            pstStreamStatus->ePhase          = (png_phase_status_e) biGetPNGSSTAT_PHASE(eStream);
0015c4  e1a03402          LSL      r3,r2,#8
0015c8  e28334c1          ADD      r3,r3,#0xc1000000
0015cc  e24339ff          SUB      r3,r3,#0x3fc000
0015d0  e5933088          LDR      r3,[r3,#0x88]
0015d4  e2033001          AND      r3,r3,#1
0015d8  e5c13000          STRB     r3,[r1,#0]
;;;979            pstStreamStatus->ePalTableLoad   = (png_pt_loaded_e) biGetPNGSSTAT_PTL(eStream);
0015dc  e1a03402          LSL      r3,r2,#8
0015e0  e28334c1          ADD      r3,r3,#0xc1000000
0015e4  e24339ff          SUB      r3,r3,#0x3fc000
0015e8  e5933088          LDR      r3,[r3,#0x88]
0015ec  e7e030d3          UBFX     r3,r3,#1,#1
0015f0  e5c13001          STRB     r3,[r1,#1]
;;;980            pstStreamStatus->eTypeOfChunk    = (png_chunk_e) biGetPNGSSTAT_CHUNK(eStream);
0015f4  e1a03402          LSL      r3,r2,#8
0015f8  e28334c1          ADD      r3,r3,#0xc1000000
0015fc  e24339ff          SUB      r3,r3,#0x3fc000
001600  e5933088          LDR      r3,[r3,#0x88]
001604  e7e13153          UBFX     r3,r3,#2,#2
001608  e5c13002          STRB     r3,[r1,#2]
;;;981            pstStreamStatus->u16NoPalEntries  = (uint16_t) biGetPNGSSTAT_NPE(eStream);
00160c  e1a03402          LSL      r3,r2,#8
001610  e28334c1          ADD      r3,r3,#0xc1000000
001614  e24339ff          SUB      r3,r3,#0x3fc000
001618  e5933088          LDR      r3,[r3,#0x88]
00161c  e7e833d3          UBFX     r3,r3,#7,#9
001620  e1c130b4          STRH     r3,[r1,#4]
;;;982            pstStreamStatus->u8NoIdatChunks  = (uint8_t) biGetPNGSSTAT_NIDAT(eStream);
001624  e1a03402          LSL      r3,r2,#8
001628  e28334c1          ADD      r3,r3,#0xc1000000
00162c  e24339ff          SUB      r3,r3,#0x3fc000
001630  e5933088          LDR      r3,[r3,#0x88]
001634  e1a03823          LSR      r3,r3,#16
001638  e5c13006          STRB     r3,[r1,#6]
                  |L1.5692|
;;;983        }
;;;984        return boResult;
;;;985    }
00163c  e12fff1e          BX       lr
;;;986    
                          ENDP

                  boPNG_GetStreamIhdrInfo PROC
;;;987    /****************************************************************************/
;;;988    bool_t boPNG_GetStreamIhdrInfo (png_stream_e eStream, png_stream_ihdr_info_st *pstStreamIhdrInfo)
001640  e1a02000          MOV      r2,r0
;;;989    {
;;;990        bool_t boResult = C_TRUE;
001644  e3a00001          MOV      r0,#1
;;;991    
;;;992        if ( (0x00 == pstStreamIhdrInfo) || (eStream > PNG_STREAM_7) )
001648  e3510000          CMP      r1,#0
00164c  0a000001          BEQ      |L1.5720|
001650  e3520007          CMP      r2,#7
001654  da000001          BLE      |L1.5728|
                  |L1.5720|
;;;993        {
;;;994            boResult = C_FALSE;
001658  e3a00000          MOV      r0,#0
00165c  ea00001d          B        |L1.5848|
                  |L1.5728|
;;;995        }
;;;996        else
;;;997        {
;;;998            pstStreamIhdrInfo->eBitDepth       = (png_bit_depth_e) biGetPNGSIHDR_BITDEPTH(eStream);
001660  e1a03402          LSL      r3,r2,#8
001664  e28334c1          ADD      r3,r3,#0xc1000000
001668  e24339ff          SUB      r3,r3,#0x3fc000
00166c  e593308c          LDR      r3,[r3,#0x8c]
001670  e203301f          AND      r3,r3,#0x1f
001674  e5c13000          STRB     r3,[r1,#0]
;;;999            pstStreamIhdrInfo->eColorType      = (png_color_format_e) biGetPNGSIHDR_CLRTYP(eStream);
001678  e1a03402          LSL      r3,r2,#8
00167c  e28334c1          ADD      r3,r3,#0xc1000000
001680  e24339ff          SUB      r3,r3,#0x3fc000
001684  e593308c          LDR      r3,[r3,#0x8c]
001688  e7e232d3          UBFX     r3,r3,#5,#3
00168c  e5c13001          STRB     r3,[r1,#1]
;;;1000           pstStreamIhdrInfo->u8ComprMethod   = (uint8_t) biGetPNGSIHDR_CMPMTH(eStream);
001690  e1a03402          LSL      r3,r2,#8
001694  e28334c1          ADD      r3,r3,#0xc1000000
001698  e24339ff          SUB      r3,r3,#0x3fc000
00169c  e593308c          LDR      r3,[r3,#0x8c]
0016a0  e1a03423          LSR      r3,r3,#8
0016a4  e5c13002          STRB     r3,[r1,#2]
;;;1001           pstStreamIhdrInfo->u8FilterMethod  = (uint8_t) biGetPNGSIHDR_FLTMTH(eStream);
0016a8  e1a03402          LSL      r3,r2,#8
0016ac  e28334c1          ADD      r3,r3,#0xc1000000
0016b0  e24339ff          SUB      r3,r3,#0x3fc000
0016b4  e593308c          LDR      r3,[r3,#0x8c]
0016b8  e1a03823          LSR      r3,r3,#16
0016bc  e5c13003          STRB     r3,[r1,#3]
;;;1002           pstStreamIhdrInfo->u8InterlMethod  = (uint8_t) biGetPNGSIHDR_INTMTH(eStream);
0016c0  e1a03402          LSL      r3,r2,#8
0016c4  e28334c1          ADD      r3,r3,#0xc1000000
0016c8  e24339ff          SUB      r3,r3,#0x3fc000
0016cc  e593308c          LDR      r3,[r3,#0x8c]
0016d0  e1a03c23          LSR      r3,r3,#24
0016d4  e5c13004          STRB     r3,[r1,#4]
                  |L1.5848|
;;;1003       }
;;;1004       return boResult;
;;;1005   }
0016d8  e12fff1e          BX       lr
;;;1006   
                          ENDP

                  boPNG_GetStreamZlibInfo PROC
;;;1008   
;;;1009   bool_t boPNG_GetStreamZlibInfo (png_stream_e eStream, png_stream_zlib_info_st *pstStreamZlibInfo)
0016dc  e1a02000          MOV      r2,r0
;;;1010   {
;;;1011       bool_t boResult = C_TRUE;
0016e0  e3a00001          MOV      r0,#1
;;;1012   
;;;1013       if ( (0x00 == pstStreamZlibInfo) || (eStream > PNG_STREAM_7) )
0016e4  e3510000          CMP      r1,#0
0016e8  0a000001          BEQ      |L1.5876|
0016ec  e3520007          CMP      r2,#7
0016f0  da000001          BLE      |L1.5884|
                  |L1.5876|
;;;1014       {
;;;1015           boResult = C_FALSE;
0016f4  e3a00000          MOV      r0,#0
0016f8  ea00001d          B        |L1.6004|
                  |L1.5884|
;;;1016       }
;;;1017       else
;;;1018       {
;;;1019           pstStreamZlibInfo->u8ComprMethod = (uint8_t) biGetPNGSZHDR_CM(eStream);
0016fc  e1a03402          LSL      r3,r2,#8
001700  e28334c1          ADD      r3,r3,#0xc1000000
001704  e24339ff          SUB      r3,r3,#0x3fc000
001708  e5933090          LDR      r3,[r3,#0x90]
00170c  e203300f          AND      r3,r3,#0xf
001710  e5c13000          STRB     r3,[r1,#0]
;;;1020           pstStreamZlibInfo->u8ComprInfo   = (uint8_t) biGetPNGSZHDR_CINFO(eStream);
001714  e1a03402          LSL      r3,r2,#8
001718  e28334c1          ADD      r3,r3,#0xc1000000
00171c  e24339ff          SUB      r3,r3,#0x3fc000
001720  e5933090          LDR      r3,[r3,#0x90]
001724  e7e33253          UBFX     r3,r3,#4,#4
001728  e5c13001          STRB     r3,[r1,#1]
;;;1021           pstStreamZlibInfo->u8CheckBits   = (uint8_t) biGetPNGSZHDR_FCHECK(eStream);
00172c  e1a03402          LSL      r3,r2,#8
001730  e28334c1          ADD      r3,r3,#0xc1000000
001734  e24339ff          SUB      r3,r3,#0x3fc000
001738  e5933090          LDR      r3,[r3,#0x90]
00173c  e7e43453          UBFX     r3,r3,#8,#5
001740  e5c13002          STRB     r3,[r1,#2]
;;;1022           pstStreamZlibInfo->u8Fdict       = (uint8_t) biGetPNGSZHDR_FDICT(eStream);
001744  e1a03402          LSL      r3,r2,#8
001748  e28334c1          ADD      r3,r3,#0xc1000000
00174c  e24339ff          SUB      r3,r3,#0x3fc000
001750  e5933090          LDR      r3,[r3,#0x90]
001754  e7e036d3          UBFX     r3,r3,#13,#1
001758  e5c13003          STRB     r3,[r1,#3]
;;;1023           pstStreamZlibInfo->u8Flevel      = (uint8_t) biGetPNGSZHDR_FLEVEL(eStream);
00175c  e1a03402          LSL      r3,r2,#8
001760  e28334c1          ADD      r3,r3,#0xc1000000
001764  e24339ff          SUB      r3,r3,#0x3fc000
001768  e5933090          LDR      r3,[r3,#0x90]
00176c  e7e13753          UBFX     r3,r3,#14,#2
001770  e5c13004          STRB     r3,[r1,#4]
                  |L1.6004|
;;;1024       }
;;;1025       return boResult;
;;;1026   }
001774  e12fff1e          BX       lr
;;;1027   
                          ENDP

                  boPNG_GetImageSize PROC
;;;1028   /****************************************************************************/
;;;1029   bool_t boPNG_GetImageSize(png_stream_e eStream, uint32_t *pu32Width, uint32_t *pu32Height)
001778  e92d4010          PUSH     {r4,lr}
;;;1030   {
00177c  e1a03000          MOV      r3,r0
;;;1031       bool_t boRes = C_TRUE;
001780  e3a00001          MOV      r0,#1
;;;1032       if ( (0x00 != pu32Width) && (0x00 != pu32Height))
001784  e3510000          CMP      r1,#0
001788  0a00000c          BEQ      |L1.6080|
00178c  e3520000          CMP      r2,#0
001790  0a00000a          BEQ      |L1.6080|
;;;1033       {
;;;1034           *pu32Width  = biGetPNGSW_WIDTH(eStream);
001794  e1a04403          LSL      r4,r3,#8
001798  e28444c1          ADD      r4,r4,#0xc1000000
00179c  e24449ff          SUB      r4,r4,#0x3fc000
0017a0  e5944098          LDR      r4,[r4,#0x98]
0017a4  e5814000          STR      r4,[r1,#0]
;;;1035           *pu32Height = biGetPNGSH_HEIGHT(eStream);
0017a8  e1a04403          LSL      r4,r3,#8
0017ac  e28444c1          ADD      r4,r4,#0xc1000000
0017b0  e24449ff          SUB      r4,r4,#0x3fc000
0017b4  e5944094          LDR      r4,[r4,#0x94]
0017b8  e5824000          STR      r4,[r2,#0]
0017bc  ea000000          B        |L1.6084|
                  |L1.6080|
;;;1036       }
;;;1037       else
;;;1038       {
;;;1039           boRes = C_FALSE;
0017c0  e3a00000          MOV      r0,#0
                  |L1.6084|
;;;1040       }
;;;1041       return boRes;
;;;1042   }
0017c4  e8bd8010          POP      {r4,pc}
;;;1043   
                          ENDP

                  u8PNG_GetDecodedStreamFIFOFillLevel PROC
;;;1044   /****************************************************************************/
;;;1045   uint8_t u8PNG_GetDecodedStreamFIFOFillLevel(png_stream_e eStream)
0017c8  e1a01000          MOV      r1,r0
;;;1046   {
;;;1047       return ((uint8_t)biGetPNGDSFLVL_DSFLEVEL(eStream));
0017cc  e1a00401          LSL      r0,r1,#8
0017d0  e28004c1          ADD      r0,r0,#0xc1000000
0017d4  e24009ff          SUB      r0,r0,#0x3fc000
0017d8  e590009c          LDR      r0,[r0,#0x9c]
0017dc  e20000ff          AND      r0,r0,#0xff
;;;1048   }
0017e0  e12fff1e          BX       lr
;;;1049   
                          ENDP

                  u32PNG_GetSSBCurrentAddress PROC
;;;1051   
;;;1052   uint32_t u32PNG_GetSSBCurrentAddress(png_stream_e eStream)
0017e4  e1a01000          MOV      r1,r0
;;;1053   {
;;;1054       return ((uint32_t)biGetPNGSSBCA_CA(eStream));
0017e8  e1a00401          LSL      r0,r1,#8
0017ec  e28004c1          ADD      r0,r0,#0xc1000000
0017f0  e24009ff          SUB      r0,r0,#0x3fc000
0017f4  e59000b4          LDR      r0,[r0,#0xb4]
;;;1055   }
0017f8  e12fff1e          BX       lr
;;;1056   
                          ENDP

                  u32PNG_GetSWBCurrentAddress PROC
;;;1058   
;;;1059   uint32_t u32PNG_GetSWBCurrentAddress(png_stream_e eStream)
0017fc  e1a01000          MOV      r1,r0
;;;1060   {
;;;1061       return ((uint32_t)biGetPNGSWBCA_CA(eStream));
001800  e1a00401          LSL      r0,r1,#8
001804  e28004c1          ADD      r0,r0,#0xc1000000
001808  e24009ff          SUB      r0,r0,#0x3fc000
00180c  e59000b8          LDR      r0,[r0,#0xb8]
;;;1062   }
001810  e12fff1e          BX       lr
;;;1063   
                          ENDP

                  u32PNG_GetFSBStartAddress PROC
;;;1065   
;;;1066   uint32_t u32PNG_GetFSBStartAddress(png_stream_e eStream)
001814  e1a01000          MOV      r1,r0
;;;1067   {
;;;1068       return ((uint32_t)biGetPNGFSBCA_CA(eStream));
001818  e1a00401          LSL      r0,r1,#8
00181c  e28004c1          ADD      r0,r0,#0xc1000000
001820  e24009ff          SUB      r0,r0,#0x3fc000
001824  e59000bc          LDR      r0,[r0,#0xbc]
;;;1069   }
001828  e12fff1e          BX       lr
;;;1070   
                          ENDP

                  u32PNG_GetCurrentVirtualOffset PROC
;;;1072   
;;;1073   uint32_t u32PNG_GetCurrentVirtualOffset(png_stream_e eStream)
00182c  e1a01000          MOV      r1,r0
;;;1074   {
;;;1075       return ((uint32_t)biGetPNGDSCVA_CA(eStream));
001830  e1a00401          LSL      r0,r1,#8
001834  e28004c1          ADD      r0,r0,#0xc1000000
001838  e24009ff          SUB      r0,r0,#0x3fc000
00183c  e59000c0          LDR      r0,[r0,#0xc0]
;;;1076   }
001840  e12fff1e          BX       lr
;;;1077   
                          ENDP

                  i32PNG_SetPaletteTable PROC
;;;1079   
;;;1080   int32_t i32PNG_SetPaletteTable(png_stream_e eStream, uint32_t * pu32PaletteTable)
001844  e92d4070          PUSH     {r4-r6,lr}
;;;1081   {
001848  e1a03000          MOV      r3,r0
00184c  e1a02001          MOV      r2,r1
;;;1082       uint32_t u32Count;
;;;1083       int32_t  i32Res = C_SUCCESS;
001850  e3a00000          MOV      r0,#0
;;;1084   
;;;1085       /* check for valid data buffer pointer */
;;;1086       if (C_NULL == pu32PaletteTable)
001854  e3520000          CMP      r2,#0
001858  1a000001          BNE      |L1.6244|
;;;1087       {
;;;1088           i32Res = C_FAILED;
00185c  e3e00000          MVN      r0,#0
001860  ea00009d          B        |L1.6876|
                  |L1.6244|
;;;1089       }
;;;1090       else
;;;1091       {
;;;1092           /* check if stream is idle */
;;;1093           if (biGetPNGSSTAT_PHASE(eStream) == 0)
001864  e1a04403          LSL      r4,r3,#8
001868  e28444c1          ADD      r4,r4,#0xc1000000
00186c  e24449ff          SUB      r4,r4,#0x3fc000
001870  e5944088          LDR      r4,[r4,#0x88]
001874  e2044001          AND      r4,r4,#1
001878  e3540000          CMP      r4,#0
00187c  1a000095          BNE      |L1.6872|
;;;1094           {
;;;1095               switch (eStream)
001880  e3530008          CMP      r3,#8
001884  308ff103          ADDCC    pc,pc,r3,LSL #2
001888  ea00008e          B        |L1.6856|
00188c  ea000006          B        |L1.6316|
001890  ea000019          B        |L1.6396|
001894  ea000027          B        |L1.6456|
001898  ea000037          B        |L1.6524|
00189c  ea000047          B        |L1.6592|
0018a0  ea000057          B        |L1.6660|
0018a4  ea000065          B        |L1.6720|
0018a8  ea000075          B        |L1.6788|
                  |L1.6316|
;;;1096               {
;;;1097                   case PNG_STREAM_0:
0018ac  e320f000          NOP      
;;;1098                       {
;;;1099                           for (u32Count=0; u32Count<256; u32Count++)
0018b0  e3a01000          MOV      r1,#0
0018b4  ea00000d          B        |L1.6384|
                  |L1.6328|
;;;1100                           {
;;;1101                               vSetPNGPLT0_PLTVAL0(u32Count, *(pu32PaletteTable + 4*u32Count));
0018b8  e1a04101          LSL      r4,r1,#2
0018bc  e7925104          LDR      r5,[r2,r4,LSL #2]
0018c0  e1a04801          LSL      r4,r1,#16
0018c4  e1a04724          LSR      r4,r4,#14
0018c8  e28444c1          ADD      r4,r4,#0xc1000000
0018cc  e24449ff          SUB      r4,r4,#0x3fc000
0018d0  e5944c00          LDR      r4,[r4,#0xc00]
0018d4  e7d74015          BFI      r4,r5,#0,#24
0018d8  e1a05801          LSL      r5,r1,#16
0018dc  e1a05725          LSR      r5,r5,#14
0018e0  e28554c1          ADD      r5,r5,#0xc1000000
0018e4  e24559ff          SUB      r5,r5,#0x3fc000
0018e8  e5854c00          STR      r4,[r5,#0xc00]
0018ec  e2811001          ADD      r1,r1,#1              ;1099
                  |L1.6384|
0018f0  e3510c01          CMP      r1,#0x100             ;1099
0018f4  3affffef          BCC      |L1.6328|
;;;1102                           }
;;;1103                       }
;;;1104                       break;
0018f8  ea000075          B        |L1.6868|
                  |L1.6396|
;;;1105                   case PNG_STREAM_1:
0018fc  e320f000          NOP      
;;;1106                       {
;;;1107                           for (u32Count=0; u32Count<256; u32Count++)
001900  e3a01000          MOV      r1,#0
001904  ea000008          B        |L1.6444|
                  |L1.6408|
;;;1108                           {
;;;1109                               vSetPNGPLT1_PLTVAL1(u32Count, *(pu32PaletteTable + 4*u32Count));
001908  e1a04101          LSL      r4,r1,#2
00190c  e7925104          LDR      r5,[r2,r4,LSL #2]
001910  e1a04801          LSL      r4,r1,#16
001914  e59f61c4          LDR      r6,|L1.6880|
001918  e7964724          LDR      r4,[r6,r4,LSR #14]
00191c  e7d74015          BFI      r4,r5,#0,#24
001920  e1a05801          LSL      r5,r1,#16
001924  e7864725          STR      r4,[r6,r5,LSR #14]
001928  e2811001          ADD      r1,r1,#1              ;1107
                  |L1.6444|
00192c  e3510c01          CMP      r1,#0x100             ;1107
001930  3afffff4          BCC      |L1.6408|
;;;1110                           }
;;;1111                       }
;;;1112                       break;
001934  ea000066          B        |L1.6868|
                  |L1.6456|
;;;1113                   case PNG_STREAM_2:
001938  e320f000          NOP      
;;;1114                       {
;;;1115                           for (u32Count=0; u32Count<256; u32Count++)
00193c  e3a01000          MOV      r1,#0
001940  ea00000a          B        |L1.6512|
                  |L1.6468|
;;;1116                           {
;;;1117                               vSetPNGPLT2_PLTVAL2(u32Count, *(pu32PaletteTable + 4*u32Count));
001944  e1a04101          LSL      r4,r1,#2
001948  e7925104          LDR      r5,[r2,r4,LSL #2]
00194c  e1a04801          LSL      r4,r1,#16
001950  e59f6188          LDR      r6,|L1.6880|
001954  e0864724          ADD      r4,r6,r4,LSR #14
001958  e5944400          LDR      r4,[r4,#0x400]
00195c  e7d74015          BFI      r4,r5,#0,#24
001960  e1a05801          LSL      r5,r1,#16
001964  e0865725          ADD      r5,r6,r5,LSR #14
001968  e5854400          STR      r4,[r5,#0x400]
00196c  e2811001          ADD      r1,r1,#1              ;1115
                  |L1.6512|
001970  e3510c01          CMP      r1,#0x100             ;1115
001974  3afffff2          BCC      |L1.6468|
;;;1118                           }
;;;1119                       }
;;;1120                       break;
001978  ea000055          B        |L1.6868|
                  |L1.6524|
;;;1121                   case PNG_STREAM_3:
00197c  e320f000          NOP      
;;;1122                       {
;;;1123                           for (u32Count=0; u32Count<256; u32Count++)
001980  e3a01000          MOV      r1,#0
001984  ea00000a          B        |L1.6580|
                  |L1.6536|
;;;1124                           {
;;;1125                               vSetPNGPLT3_PLTVAL3(u32Count, *(pu32PaletteTable + 4*u32Count));
001988  e1a04101          LSL      r4,r1,#2
00198c  e7925104          LDR      r5,[r2,r4,LSL #2]
001990  e1a04801          LSL      r4,r1,#16
001994  e59f6144          LDR      r6,|L1.6880|
001998  e0864724          ADD      r4,r6,r4,LSR #14
00199c  e5944800          LDR      r4,[r4,#0x800]
0019a0  e7d74015          BFI      r4,r5,#0,#24
0019a4  e1a05801          LSL      r5,r1,#16
0019a8  e0865725          ADD      r5,r6,r5,LSR #14
0019ac  e5854800          STR      r4,[r5,#0x800]
0019b0  e2811001          ADD      r1,r1,#1              ;1123
                  |L1.6580|
0019b4  e3510c01          CMP      r1,#0x100             ;1123
0019b8  3afffff2          BCC      |L1.6536|
;;;1126                           }
;;;1127                       }
;;;1128                       break;
0019bc  ea000044          B        |L1.6868|
                  |L1.6592|
;;;1129                   case PNG_STREAM_4:
0019c0  e320f000          NOP      
;;;1130                       {
;;;1131                           for (u32Count=0; u32Count<256; u32Count++)
0019c4  e3a01000          MOV      r1,#0
0019c8  ea00000a          B        |L1.6648|
                  |L1.6604|
;;;1132                           {
;;;1133                               vSetPNGPLT4_PLTVAL4(u32Count, *(pu32PaletteTable + 4*u32Count));
0019cc  e1a04101          LSL      r4,r1,#2
0019d0  e7925104          LDR      r5,[r2,r4,LSL #2]
0019d4  e1a04801          LSL      r4,r1,#16
0019d8  e59f6100          LDR      r6,|L1.6880|
0019dc  e0864724          ADD      r4,r6,r4,LSR #14
0019e0  e5944c00          LDR      r4,[r4,#0xc00]
0019e4  e7d74015          BFI      r4,r5,#0,#24
0019e8  e1a05801          LSL      r5,r1,#16
0019ec  e0865725          ADD      r5,r6,r5,LSR #14
0019f0  e5854c00          STR      r4,[r5,#0xc00]
0019f4  e2811001          ADD      r1,r1,#1              ;1131
                  |L1.6648|
0019f8  e3510c01          CMP      r1,#0x100             ;1131
0019fc  3afffff2          BCC      |L1.6604|
;;;1134                           }
;;;1135                       }
;;;1136                       break;
001a00  ea000033          B        |L1.6868|
                  |L1.6660|
;;;1137                   case PNG_STREAM_5:
001a04  e320f000          NOP      
;;;1138                       {
;;;1139                           for (u32Count=0; u32Count<256; u32Count++)
001a08  e3a01000          MOV      r1,#0
001a0c  ea000008          B        |L1.6708|
                  |L1.6672|
;;;1140                           {
;;;1141                               vSetPNGPLT5_PLTVAL5(u32Count, *(pu32PaletteTable + 4*u32Count));
001a10  e1a04101          LSL      r4,r1,#2
001a14  e7925104          LDR      r5,[r2,r4,LSL #2]
001a18  e1a04801          LSL      r4,r1,#16
001a1c  e59f60c0          LDR      r6,|L1.6884|
001a20  e7964724          LDR      r4,[r6,r4,LSR #14]
001a24  e7d74015          BFI      r4,r5,#0,#24
001a28  e1a05801          LSL      r5,r1,#16
001a2c  e7864725          STR      r4,[r6,r5,LSR #14]
001a30  e2811001          ADD      r1,r1,#1              ;1139
                  |L1.6708|
001a34  e3510c01          CMP      r1,#0x100             ;1139
001a38  3afffff4          BCC      |L1.6672|
;;;1142                           }
;;;1143                       }
;;;1144                       break;
001a3c  ea000024          B        |L1.6868|
                  |L1.6720|
;;;1145                   case PNG_STREAM_6:
001a40  e320f000          NOP      
;;;1146                       {
;;;1147                           for (u32Count=0; u32Count<256; u32Count++)
001a44  e3a01000          MOV      r1,#0
001a48  ea00000a          B        |L1.6776|
                  |L1.6732|
;;;1148                           {
;;;1149                               vSetPNGPLT6_PLTVAL6(u32Count, *(pu32PaletteTable + 4*u32Count));
001a4c  e1a04101          LSL      r4,r1,#2
001a50  e7925104          LDR      r5,[r2,r4,LSL #2]
001a54  e1a04801          LSL      r4,r1,#16
001a58  e59f6084          LDR      r6,|L1.6884|
001a5c  e0864724          ADD      r4,r6,r4,LSR #14
001a60  e5944400          LDR      r4,[r4,#0x400]
001a64  e7d74015          BFI      r4,r5,#0,#24
001a68  e1a05801          LSL      r5,r1,#16
001a6c  e0865725          ADD      r5,r6,r5,LSR #14
001a70  e5854400          STR      r4,[r5,#0x400]
001a74  e2811001          ADD      r1,r1,#1              ;1147
                  |L1.6776|
001a78  e3510c01          CMP      r1,#0x100             ;1147
001a7c  3afffff2          BCC      |L1.6732|
;;;1150                           }
;;;1151                       }
;;;1152                       break;
001a80  ea000013          B        |L1.6868|
                  |L1.6788|
;;;1153                   case PNG_STREAM_7:
001a84  e320f000          NOP      
;;;1154                       {
;;;1155                           for (u32Count=0; u32Count<256; u32Count++)
001a88  e3a01000          MOV      r1,#0
001a8c  ea00000a          B        |L1.6844|
                  |L1.6800|
;;;1156                           {
;;;1157                               vSetPNGPLT7_PLTVAL7(u32Count, *(pu32PaletteTable + 4*u32Count));
001a90  e1a04101          LSL      r4,r1,#2
001a94  e7925104          LDR      r5,[r2,r4,LSL #2]
001a98  e1a04801          LSL      r4,r1,#16
001a9c  e59f6040          LDR      r6,|L1.6884|
001aa0  e0864724          ADD      r4,r6,r4,LSR #14
001aa4  e5944800          LDR      r4,[r4,#0x800]
001aa8  e7d74015          BFI      r4,r5,#0,#24
001aac  e1a05801          LSL      r5,r1,#16
001ab0  e0865725          ADD      r5,r6,r5,LSR #14
001ab4  e5854800          STR      r4,[r5,#0x800]
001ab8  e2811001          ADD      r1,r1,#1              ;1155
                  |L1.6844|
001abc  e3510c01          CMP      r1,#0x100             ;1155
001ac0  3afffff2          BCC      |L1.6800|
;;;1158                           }
;;;1159                       }
;;;1160                       break;
001ac4  ea000002          B        |L1.6868|
                  |L1.6856|
;;;1161                   default:
001ac8  e320f000          NOP      
;;;1162                       {
;;;1163                           i32Res = C_FAILED;
001acc  e3e00000          MVN      r0,#0
;;;1164                       }
;;;1165                       break;
001ad0  e320f000          NOP      
                  |L1.6868|
001ad4  ea000000          B        |L1.6876|
                  |L1.6872|
;;;1166               }
;;;1167           }
;;;1168           else
;;;1169           {
;;;1170               i32Res = C_FAILED;
001ad8  e3e00000          MVN      r0,#0
                  |L1.6876|
;;;1171           }
;;;1172       }
;;;1173   
;;;1174       return i32Res;
;;;1175   }
001adc  e8bd8070          POP      {r4-r6,pc}
;;;1176   
                          ENDP

                  |L1.6880|
                          DCD      0xc0c05000
                  |L1.6884|
                          DCD      0xc0c06000

                          AREA ||.PNGBuffer||, DATA, NOINIT, ALIGN=3

                  u8PNG_SWB_Buffer_Stream_0
                          %        32768
                  u8PNG_SWB_Buffer_Stream_1
                          %        32768
                  u8PNG_SWB_Buffer_Stream_2
                          %        32768
                  u8PNG_SWB_Buffer_Stream_3
                          %        32768
                  u8PNG_SWB_Buffer_Stream_4
                          %        32768
                  u8PNG_SWB_Buffer_Stream_5
                          %        32768
                  u8PNG_SWB_Buffer_Stream_6
                          %        32768
                  u8PNG_SWB_Buffer_Stream_7
                          %        32768
                  u8PNG_FSB_Buffer_Stream_0
                          %        16384
                  u8PNG_FSB_Buffer_Stream_1
                          %        16384
                  u8PNG_FSB_Buffer_Stream_2
                          %        16384
                  u8PNG_FSB_Buffer_Stream_3
                          %        16384
                  u8PNG_FSB_Buffer_Stream_4
                          %        16384
                  u8PNG_FSB_Buffer_Stream_5
                          %        16384
                  u8PNG_FSB_Buffer_Stream_6
                          %        16384
                  u8PNG_FSB_Buffer_Stream_7
                          %        16384
                  u32SWBBufferStartAddress
                          %        32
                  u32FSBBufferStartAddress
                          %        32
                  u32VirtualMemoryStartAddress
                          %        32

                          AREA ||.data||, DATA, ALIGN=0

                  au8LLDD_PNG_C_REVISION
000000  24526576          DCB      0x24,0x52,0x65,0x76
000004  6973696f          DCB      0x69,0x73,0x69,0x6f
000008  6e3a2031          DCB      0x6e,0x3a,0x20,0x31
00000c  2e313920          DCB      0x2e,0x31,0x39,0x20
000010  2400              DCB      0x24,0x00
                  au8LLDD_PNG_C_TAG
000012  244e              DCB      0x24,0x4e
000014  616d653a          DCB      0x61,0x6d,0x65,0x3a
000018  204c4c44          DCB      0x20,0x4c,0x4c,0x44
00001c  445f315f          DCB      0x44,0x5f,0x31,0x5f
000020  375f4746          DCB      0x37,0x5f,0x47,0x46
000024  58202400          DCB      0x58,0x20,0x24,0x00
                  au8LLDD_PNG_H_REVISION
000028  24526576          DCB      0x24,0x52,0x65,0x76
00002c  6973696f          DCB      0x69,0x73,0x69,0x6f
000030  6e3a2031          DCB      0x6e,0x3a,0x20,0x31
000034  2e313320          DCB      0x2e,0x31,0x33,0x20
000038  2400              DCB      0x24,0x00
                  au8LLDD_PNG_H_TAG
00003a  244e              DCB      0x24,0x4e
00003c  616d653a          DCB      0x61,0x6d,0x65,0x3a
000040  204c4c44          DCB      0x20,0x4c,0x4c,0x44
000044  445f315f          DCB      0x44,0x5f,0x31,0x5f
000048  375f4746          DCB      0x37,0x5f,0x47,0x46
00004c  58202400          DCB      0x58,0x20,0x24,0x00
                  au8LLDD_PNG_IO_H_REVISION
000050  24526576          DCB      0x24,0x52,0x65,0x76
000054  6973696f          DCB      0x69,0x73,0x69,0x6f
000058  6e3a2031          DCB      0x6e,0x3a,0x20,0x31
00005c  2e313120          DCB      0x2e,0x31,0x31,0x20
000060  2400              DCB      0x24,0x00
                  au8LLDD_PNG_IO_H_TAG
000062  244e              DCB      0x24,0x4e
000064  616d653a          DCB      0x61,0x6d,0x65,0x3a
000068  204c4c44          DCB      0x20,0x4c,0x4c,0x44
00006c  445f315f          DCB      0x44,0x5f,0x31,0x5f
000070  375f4746          DCB      0x37,0x5f,0x47,0x46
000074  58202400          DCB      0x58,0x20,0x24,0x00
